   1              		.arch armv7e-m
   2              		.fpu fpv4-sp-d16
   3              		.eabi_attribute 27, 1
   4              		.eabi_attribute 28, 1
   5              		.eabi_attribute 20, 1
   6              		.eabi_attribute 21, 1
   7              		.eabi_attribute 23, 3
   8              		.eabi_attribute 24, 1
   9              		.eabi_attribute 25, 1
  10              		.eabi_attribute 26, 1
  11              		.eabi_attribute 30, 4
  12              		.eabi_attribute 34, 1
  13              		.eabi_attribute 18, 4
  14              		.file	"clock.c"
  15              		.text
  16              	.Ltext0:
  17              		.cfi_sections	.debug_frame
  18              		.file 1 "src/sys/clock.c"
  19              		.align	1
  20              		.global	start_PLL
  21              		.syntax unified
  22              		.thumb
  23              		.thumb_func
  24              		.type	start_PLL, %function
  25              	start_PLL:
  26              	.LVL0:
  27              	.LFB397:
   1:src/sys/clock.c **** #include"clock.h"
   2:src/sys/clock.c **** #include"devices.h"
   3:src/sys/clock.c **** #include "cm4.h"
   4:src/sys/clock.c **** 
   5:src/sys/clock.c **** void start_PLL(PLLSRC SRC,
   6:src/sys/clock.c **** 		 int32_t M,int32_t N,int32_t P,int32_t Q,int32_t R) {
  28              		.loc 1 6 55 view -0
  29              		.cfi_startproc
  30              		@ args = 8, pretend = 0, frame = 0
  31              		@ frame_needed = 0, uses_anonymous_args = 0
   7:src/sys/clock.c ****   /* setup parameters */
   8:src/sys/clock.c ****   RCC.PLLCFGR =
  32              		.loc 1 8 3 view .LVU1
   6:src/sys/clock.c ****   /* setup parameters */
  33              		.loc 1 6 55 is_stmt 0 view .LVU2
  34 0000 30B5     		push	{r4, r5, lr}
  35              		.cfi_def_cfa_offset 12
  36              		.cfi_offset 4, -12
  37              		.cfi_offset 5, -8
  38              		.cfi_offset 14, -4
   9:src/sys/clock.c ****     (M<<0)    | (N<<6)  | ((P/2-1)<<16) |
  10:src/sys/clock.c ****     (SRC<<22) | (Q<<24) | (R<<28) ;
  39              		.loc 1 10 29 view .LVU3
  40 0002 049C     		ldr	r4, [sp, #16]
  41              		.loc 1 10 25 view .LVU4
  42 0004 039D     		ldr	r5, [sp, #12]
  43              		.loc 1 10 29 view .LVU5
  44 0006 2407     		lsls	r4, r4, #28
  45              		.loc 1 10 25 view .LVU6
  46 0008 44EA0564 		orr	r4, r4, r5, lsl #24
  47 000c 0C43     		orrs	r4, r4, r1
   9:src/sys/clock.c ****     (M<<0)    | (N<<6)  | ((P/2-1)<<16) |
  48              		.loc 1 9 30 view .LVU7
  49 000e 03EBD373 		add	r3, r3, r3, lsr #31
  50              	.LVL1:
  51              		.loc 1 10 25 view .LVU8
  52 0012 44EA8054 		orr	r4, r4, r0, lsl #22
   9:src/sys/clock.c ****     (M<<0)    | (N<<6)  | ((P/2-1)<<16) |
  53              		.loc 1 9 30 view .LVU9
  54 0016 5B10     		asrs	r3, r3, #1
  55              		.loc 1 10 25 view .LVU10
  56 0018 44EA8214 		orr	r4, r4, r2, lsl #6
   9:src/sys/clock.c ****     (M<<0)    | (N<<6)  | ((P/2-1)<<16) |
  57              		.loc 1 9 32 view .LVU11
  58 001c 013B     		subs	r3, r3, #1
  59              		.loc 1 10 25 view .LVU12
  60 001e 44EA0344 		orr	r4, r4, r3, lsl #16
   8:src/sys/clock.c ****     (M<<0)    | (N<<6)  | ((P/2-1)<<16) |
  61              		.loc 1 8 15 view .LVU13
  62 0022 054B     		ldr	r3, .L5
  63 0024 5C60     		str	r4, [r3, #4]
  11:src/sys/clock.c **** 
  12:src/sys/clock.c ****   /* Switch on PLL : PLLON=1; */
  13:src/sys/clock.c ****   RCC.CR |= 1<<24;
  64              		.loc 1 13 3 is_stmt 1 view .LVU14
  65              		.loc 1 13 6 is_stmt 0 view .LVU15
  66 0026 1A68     		ldr	r2, [r3]
  67              	.LVL2:
  68              		.loc 1 13 10 view .LVU16
  69 0028 42F08072 		orr	r2, r2, #16777216
  70 002c 1A60     		str	r2, [r3]
  14:src/sys/clock.c **** 
  15:src/sys/clock.c ****   /* wait for PLLRDY==1; */
  16:src/sys/clock.c ****   while ((RCC.CR&(1<<25))==0);
  71              		.loc 1 16 3 is_stmt 1 view .LVU17
  72              	.L2:
  73              		.loc 1 16 26 discriminator 1 view .LVU18
  74              		.loc 1 16 14 is_stmt 0 discriminator 1 view .LVU19
  75 002e 1A68     		ldr	r2, [r3]
  76              		.loc 1 16 26 discriminator 1 view .LVU20
  77 0030 9201     		lsls	r2, r2, #6
  78 0032 FCD5     		bpl	.L2
  17:src/sys/clock.c **** }
  79              		.loc 1 17 1 view .LVU21
  80 0034 30BD     		pop	{r4, r5, pc}
  81              	.LVL3:
  82              	.L6:
  83              		.loc 1 17 1 view .LVU22
  84 0036 00BF     		.align	2
  85              	.L5:
  86 0038 00000000 		.word	RCC
  87              		.cfi_endproc
  88              	.LFE397:
  89              		.size	start_PLL, .-start_PLL
  90              		.align	1
  91              		.global	stop_PLL
  92              		.syntax unified
  93              		.thumb
  94              		.thumb_func
  95              		.type	stop_PLL, %function
  96              	stop_PLL:
  97              	.LFB398:
  18:src/sys/clock.c **** 
  19:src/sys/clock.c **** void stop_PLL() {
  98              		.loc 1 19 17 is_stmt 1 view -0
  99              		.cfi_startproc
 100              		@ args = 0, pretend = 0, frame = 0
 101              		@ frame_needed = 0, uses_anonymous_args = 0
 102              		@ link register save eliminated.
  20:src/sys/clock.c ****   /* Switch off PLL : PLLON=0; */
  21:src/sys/clock.c ****   RCC.CR &= ~(1<<24);
 103              		.loc 1 21 3 view .LVU24
 104              		.loc 1 21 6 is_stmt 0 view .LVU25
 105 003c 034A     		ldr	r2, .L8
 106 003e 1368     		ldr	r3, [r2]
 107              		.loc 1 21 10 view .LVU26
 108 0040 23F08073 		bic	r3, r3, #16777216
 109 0044 1360     		str	r3, [r2]
  22:src/sys/clock.c ****   __DSB();
 110              		.loc 1 22 3 is_stmt 1 view .LVU27
 111              	.LBB16:
 112              	.LBI16:
 113              		.file 2 "src/sys/cmsis_gcc.h"
   1:src/sys/cmsis_gcc.h **** /**************************************************************************//**
   2:src/sys/cmsis_gcc.h ****  * @file     cmsis_gcc.h
   3:src/sys/cmsis_gcc.h ****  * @brief    CMSIS Cortex-M Core Function/Instruction Header File
   4:src/sys/cmsis_gcc.h ****  * @version  V4.30
   5:src/sys/cmsis_gcc.h ****  * @date     20. October 2015
   6:src/sys/cmsis_gcc.h ****  ******************************************************************************/
   7:src/sys/cmsis_gcc.h **** /* Copyright (c) 2009 - 2015 ARM LIMITED
   8:src/sys/cmsis_gcc.h **** 
   9:src/sys/cmsis_gcc.h ****    All rights reserved.
  10:src/sys/cmsis_gcc.h ****    Redistribution and use in source and binary forms, with or without
  11:src/sys/cmsis_gcc.h ****    modification, are permitted provided that the following conditions are met:
  12:src/sys/cmsis_gcc.h ****    - Redistributions of source code must retain the above copyright
  13:src/sys/cmsis_gcc.h ****      notice, this list of conditions and the following disclaimer.
  14:src/sys/cmsis_gcc.h ****    - Redistributions in binary form must reproduce the above copyright
  15:src/sys/cmsis_gcc.h ****      notice, this list of conditions and the following disclaimer in the
  16:src/sys/cmsis_gcc.h ****      documentation and/or other materials provided with the distribution.
  17:src/sys/cmsis_gcc.h ****    - Neither the name of ARM nor the names of its contributors may be used
  18:src/sys/cmsis_gcc.h ****      to endorse or promote products derived from this software without
  19:src/sys/cmsis_gcc.h ****      specific prior written permission.
  20:src/sys/cmsis_gcc.h ****    *
  21:src/sys/cmsis_gcc.h ****    THIS SOFTWARE IS PROVIDED BY THE COPYRIGHT HOLDERS AND CONTRIBUTORS "AS IS"
  22:src/sys/cmsis_gcc.h ****    AND ANY EXPRESS OR IMPLIED WARRANTIES, INCLUDING, BUT NOT LIMITED TO, THE
  23:src/sys/cmsis_gcc.h ****    IMPLIED WARRANTIES OF MERCHANTABILITY AND FITNESS FOR A PARTICULAR PURPOSE
  24:src/sys/cmsis_gcc.h ****    ARE DISCLAIMED. IN NO EVENT SHALL COPYRIGHT HOLDERS AND CONTRIBUTORS BE
  25:src/sys/cmsis_gcc.h ****    LIABLE FOR ANY DIRECT, INDIRECT, INCIDENTAL, SPECIAL, EXEMPLARY, OR
  26:src/sys/cmsis_gcc.h ****    CONSEQUENTIAL DAMAGES (INCLUDING, BUT NOT LIMITED TO, PROCUREMENT OF
  27:src/sys/cmsis_gcc.h ****    SUBSTITUTE GOODS OR SERVICES; LOSS OF USE, DATA, OR PROFITS; OR BUSINESS
  28:src/sys/cmsis_gcc.h ****    INTERRUPTION) HOWEVER CAUSED AND ON ANY THEORY OF LIABILITY, WHETHER IN
  29:src/sys/cmsis_gcc.h ****    CONTRACT, STRICT LIABILITY, OR TORT (INCLUDING NEGLIGENCE OR OTHERWISE)
  30:src/sys/cmsis_gcc.h ****    ARISING IN ANY WAY OUT OF THE USE OF THIS SOFTWARE, EVEN IF ADVISED OF THE
  31:src/sys/cmsis_gcc.h ****    POSSIBILITY OF SUCH DAMAGE.
  32:src/sys/cmsis_gcc.h ****    ---------------------------------------------------------------------------*/
  33:src/sys/cmsis_gcc.h **** 
  34:src/sys/cmsis_gcc.h **** #ifndef __CMSIS_GCC_H
  35:src/sys/cmsis_gcc.h **** #define __CMSIS_GCC_H
  36:src/sys/cmsis_gcc.h **** 
  37:src/sys/cmsis_gcc.h **** /* ignore some GCC warnings */
  38:src/sys/cmsis_gcc.h **** #if defined ( __GNUC__ )
  39:src/sys/cmsis_gcc.h **** #pragma GCC diagnostic push
  40:src/sys/cmsis_gcc.h **** #pragma GCC diagnostic ignored "-Wsign-conversion"
  41:src/sys/cmsis_gcc.h **** #pragma GCC diagnostic ignored "-Wconversion"
  42:src/sys/cmsis_gcc.h **** #pragma GCC diagnostic ignored "-Wunused-parameter"
  43:src/sys/cmsis_gcc.h **** #endif
  44:src/sys/cmsis_gcc.h **** 
  45:src/sys/cmsis_gcc.h **** 
  46:src/sys/cmsis_gcc.h **** /* ###########################  Core Function Access  ########################### */
  47:src/sys/cmsis_gcc.h **** /** \ingroup  CMSIS_Core_FunctionInterface
  48:src/sys/cmsis_gcc.h ****     \defgroup CMSIS_Core_RegAccFunctions CMSIS Core Register Access Functions
  49:src/sys/cmsis_gcc.h ****   @{
  50:src/sys/cmsis_gcc.h ****  */
  51:src/sys/cmsis_gcc.h **** 
  52:src/sys/cmsis_gcc.h **** /**
  53:src/sys/cmsis_gcc.h ****   \brief   Enable IRQ Interrupts
  54:src/sys/cmsis_gcc.h ****   \details Enables IRQ interrupts by clearing the I-bit in the CPSR.
  55:src/sys/cmsis_gcc.h ****            Can only be executed in Privileged modes.
  56:src/sys/cmsis_gcc.h ****  */
  57:src/sys/cmsis_gcc.h **** __attribute__( ( always_inline ) ) __STATIC_INLINE void __enable_irq(void)
  58:src/sys/cmsis_gcc.h **** {
  59:src/sys/cmsis_gcc.h ****   __ASM volatile ("cpsie i" : : : "memory");
  60:src/sys/cmsis_gcc.h **** }
  61:src/sys/cmsis_gcc.h **** 
  62:src/sys/cmsis_gcc.h **** 
  63:src/sys/cmsis_gcc.h **** /**
  64:src/sys/cmsis_gcc.h ****   \brief   Disable IRQ Interrupts
  65:src/sys/cmsis_gcc.h ****   \details Disables IRQ interrupts by setting the I-bit in the CPSR.
  66:src/sys/cmsis_gcc.h ****   Can only be executed in Privileged modes.
  67:src/sys/cmsis_gcc.h ****  */
  68:src/sys/cmsis_gcc.h **** __attribute__( ( always_inline ) ) __STATIC_INLINE void __disable_irq(void)
  69:src/sys/cmsis_gcc.h **** {
  70:src/sys/cmsis_gcc.h ****   __ASM volatile ("cpsid i" : : : "memory");
  71:src/sys/cmsis_gcc.h **** }
  72:src/sys/cmsis_gcc.h **** 
  73:src/sys/cmsis_gcc.h **** 
  74:src/sys/cmsis_gcc.h **** /**
  75:src/sys/cmsis_gcc.h ****   \brief   Get Control Register
  76:src/sys/cmsis_gcc.h ****   \details Returns the content of the Control Register.
  77:src/sys/cmsis_gcc.h ****   \return               Control Register value
  78:src/sys/cmsis_gcc.h ****  */
  79:src/sys/cmsis_gcc.h **** __attribute__( ( always_inline ) ) __STATIC_INLINE uint32_t __get_CONTROL(void)
  80:src/sys/cmsis_gcc.h **** {
  81:src/sys/cmsis_gcc.h ****   uint32_t result;
  82:src/sys/cmsis_gcc.h **** 
  83:src/sys/cmsis_gcc.h ****   __ASM volatile ("MRS %0, control" : "=r" (result) );
  84:src/sys/cmsis_gcc.h ****   return(result);
  85:src/sys/cmsis_gcc.h **** }
  86:src/sys/cmsis_gcc.h **** 
  87:src/sys/cmsis_gcc.h **** 
  88:src/sys/cmsis_gcc.h **** /**
  89:src/sys/cmsis_gcc.h ****   \brief   Set Control Register
  90:src/sys/cmsis_gcc.h ****   \details Writes the given value to the Control Register.
  91:src/sys/cmsis_gcc.h ****   \param [in]    control  Control Register value to set
  92:src/sys/cmsis_gcc.h ****  */
  93:src/sys/cmsis_gcc.h **** __attribute__( ( always_inline ) ) __STATIC_INLINE void __set_CONTROL(uint32_t control)
  94:src/sys/cmsis_gcc.h **** {
  95:src/sys/cmsis_gcc.h ****   __ASM volatile ("MSR control, %0" : : "r" (control) : "memory");
  96:src/sys/cmsis_gcc.h **** }
  97:src/sys/cmsis_gcc.h **** 
  98:src/sys/cmsis_gcc.h **** 
  99:src/sys/cmsis_gcc.h **** /**
 100:src/sys/cmsis_gcc.h ****   \brief   Get IPSR Register
 101:src/sys/cmsis_gcc.h ****   \details Returns the content of the IPSR Register.
 102:src/sys/cmsis_gcc.h ****   \return               IPSR Register value
 103:src/sys/cmsis_gcc.h ****  */
 104:src/sys/cmsis_gcc.h **** __attribute__( ( always_inline ) ) __STATIC_INLINE uint32_t __get_IPSR(void)
 105:src/sys/cmsis_gcc.h **** {
 106:src/sys/cmsis_gcc.h ****   uint32_t result;
 107:src/sys/cmsis_gcc.h **** 
 108:src/sys/cmsis_gcc.h ****   __ASM volatile ("MRS %0, ipsr" : "=r" (result) );
 109:src/sys/cmsis_gcc.h ****   return(result);
 110:src/sys/cmsis_gcc.h **** }
 111:src/sys/cmsis_gcc.h **** 
 112:src/sys/cmsis_gcc.h **** 
 113:src/sys/cmsis_gcc.h **** /**
 114:src/sys/cmsis_gcc.h ****   \brief   Get APSR Register
 115:src/sys/cmsis_gcc.h ****   \details Returns the content of the APSR Register.
 116:src/sys/cmsis_gcc.h ****   \return               APSR Register value
 117:src/sys/cmsis_gcc.h ****  */
 118:src/sys/cmsis_gcc.h **** __attribute__( ( always_inline ) ) __STATIC_INLINE uint32_t __get_APSR(void)
 119:src/sys/cmsis_gcc.h **** {
 120:src/sys/cmsis_gcc.h ****   uint32_t result;
 121:src/sys/cmsis_gcc.h **** 
 122:src/sys/cmsis_gcc.h ****   __ASM volatile ("MRS %0, apsr" : "=r" (result) );
 123:src/sys/cmsis_gcc.h ****   return(result);
 124:src/sys/cmsis_gcc.h **** }
 125:src/sys/cmsis_gcc.h **** 
 126:src/sys/cmsis_gcc.h **** 
 127:src/sys/cmsis_gcc.h **** /**
 128:src/sys/cmsis_gcc.h ****   \brief   Get xPSR Register
 129:src/sys/cmsis_gcc.h ****   \details Returns the content of the xPSR Register.
 130:src/sys/cmsis_gcc.h **** 
 131:src/sys/cmsis_gcc.h ****     \return               xPSR Register value
 132:src/sys/cmsis_gcc.h ****  */
 133:src/sys/cmsis_gcc.h **** __attribute__( ( always_inline ) ) __STATIC_INLINE uint32_t __get_xPSR(void)
 134:src/sys/cmsis_gcc.h **** {
 135:src/sys/cmsis_gcc.h ****   uint32_t result;
 136:src/sys/cmsis_gcc.h **** 
 137:src/sys/cmsis_gcc.h ****   __ASM volatile ("MRS %0, xpsr" : "=r" (result) );
 138:src/sys/cmsis_gcc.h ****   return(result);
 139:src/sys/cmsis_gcc.h **** }
 140:src/sys/cmsis_gcc.h **** 
 141:src/sys/cmsis_gcc.h **** 
 142:src/sys/cmsis_gcc.h **** /**
 143:src/sys/cmsis_gcc.h ****   \brief   Get Process Stack Pointer
 144:src/sys/cmsis_gcc.h ****   \details Returns the current value of the Process Stack Pointer (PSP).
 145:src/sys/cmsis_gcc.h ****   \return               PSP Register value
 146:src/sys/cmsis_gcc.h ****  */
 147:src/sys/cmsis_gcc.h **** __attribute__( ( always_inline ) ) __STATIC_INLINE uint32_t __get_PSP(void)
 148:src/sys/cmsis_gcc.h **** {
 149:src/sys/cmsis_gcc.h ****   register uint32_t result;
 150:src/sys/cmsis_gcc.h **** 
 151:src/sys/cmsis_gcc.h ****   __ASM volatile ("MRS %0, psp\n"  : "=r" (result) );
 152:src/sys/cmsis_gcc.h ****   return(result);
 153:src/sys/cmsis_gcc.h **** }
 154:src/sys/cmsis_gcc.h **** 
 155:src/sys/cmsis_gcc.h **** 
 156:src/sys/cmsis_gcc.h **** /**
 157:src/sys/cmsis_gcc.h ****   \brief   Set Process Stack Pointer
 158:src/sys/cmsis_gcc.h ****   \details Assigns the given value to the Process Stack Pointer (PSP).
 159:src/sys/cmsis_gcc.h ****   \param [in]    topOfProcStack  Process Stack Pointer value to set
 160:src/sys/cmsis_gcc.h ****  */
 161:src/sys/cmsis_gcc.h **** __attribute__( ( always_inline ) ) __STATIC_INLINE void __set_PSP(uint32_t topOfProcStack)
 162:src/sys/cmsis_gcc.h **** {
 163:src/sys/cmsis_gcc.h ****   __ASM volatile ("MSR psp, %0\n" : : "r" (topOfProcStack) : "sp");
 164:src/sys/cmsis_gcc.h **** }
 165:src/sys/cmsis_gcc.h **** 
 166:src/sys/cmsis_gcc.h **** 
 167:src/sys/cmsis_gcc.h **** /**
 168:src/sys/cmsis_gcc.h ****   \brief   Get Main Stack Pointer
 169:src/sys/cmsis_gcc.h ****   \details Returns the current value of the Main Stack Pointer (MSP).
 170:src/sys/cmsis_gcc.h ****   \return               MSP Register value
 171:src/sys/cmsis_gcc.h ****  */
 172:src/sys/cmsis_gcc.h **** __attribute__( ( always_inline ) ) __STATIC_INLINE uint32_t __get_MSP(void)
 173:src/sys/cmsis_gcc.h **** {
 174:src/sys/cmsis_gcc.h ****   register uint32_t result;
 175:src/sys/cmsis_gcc.h **** 
 176:src/sys/cmsis_gcc.h ****   __ASM volatile ("MRS %0, msp\n" : "=r" (result) );
 177:src/sys/cmsis_gcc.h ****   return(result);
 178:src/sys/cmsis_gcc.h **** }
 179:src/sys/cmsis_gcc.h **** 
 180:src/sys/cmsis_gcc.h **** 
 181:src/sys/cmsis_gcc.h **** /**
 182:src/sys/cmsis_gcc.h ****   \brief   Set Main Stack Pointer
 183:src/sys/cmsis_gcc.h ****   \details Assigns the given value to the Main Stack Pointer (MSP).
 184:src/sys/cmsis_gcc.h **** 
 185:src/sys/cmsis_gcc.h ****     \param [in]    topOfMainStack  Main Stack Pointer value to set
 186:src/sys/cmsis_gcc.h ****  */
 187:src/sys/cmsis_gcc.h **** __attribute__( ( always_inline ) ) __STATIC_INLINE void __set_MSP(uint32_t topOfMainStack)
 188:src/sys/cmsis_gcc.h **** {
 189:src/sys/cmsis_gcc.h ****   __ASM volatile ("MSR msp, %0\n" : : "r" (topOfMainStack) : "sp");
 190:src/sys/cmsis_gcc.h **** }
 191:src/sys/cmsis_gcc.h **** 
 192:src/sys/cmsis_gcc.h **** 
 193:src/sys/cmsis_gcc.h **** /**
 194:src/sys/cmsis_gcc.h ****   \brief   Get Priority Mask
 195:src/sys/cmsis_gcc.h ****   \details Returns the current state of the priority mask bit from the Priority Mask Register.
 196:src/sys/cmsis_gcc.h ****   \return               Priority Mask value
 197:src/sys/cmsis_gcc.h ****  */
 198:src/sys/cmsis_gcc.h **** __attribute__( ( always_inline ) ) __STATIC_INLINE uint32_t __get_PRIMASK(void)
 199:src/sys/cmsis_gcc.h **** {
 200:src/sys/cmsis_gcc.h ****   uint32_t result;
 201:src/sys/cmsis_gcc.h **** 
 202:src/sys/cmsis_gcc.h ****   __ASM volatile ("MRS %0, primask" : "=r" (result) );
 203:src/sys/cmsis_gcc.h ****   return(result);
 204:src/sys/cmsis_gcc.h **** }
 205:src/sys/cmsis_gcc.h **** 
 206:src/sys/cmsis_gcc.h **** 
 207:src/sys/cmsis_gcc.h **** /**
 208:src/sys/cmsis_gcc.h ****   \brief   Set Priority Mask
 209:src/sys/cmsis_gcc.h ****   \details Assigns the given value to the Priority Mask Register.
 210:src/sys/cmsis_gcc.h ****   \param [in]    priMask  Priority Mask
 211:src/sys/cmsis_gcc.h ****  */
 212:src/sys/cmsis_gcc.h **** __attribute__( ( always_inline ) ) __STATIC_INLINE void __set_PRIMASK(uint32_t priMask)
 213:src/sys/cmsis_gcc.h **** {
 214:src/sys/cmsis_gcc.h ****   __ASM volatile ("MSR primask, %0" : : "r" (priMask) : "memory");
 215:src/sys/cmsis_gcc.h **** }
 216:src/sys/cmsis_gcc.h **** 
 217:src/sys/cmsis_gcc.h **** 
 218:src/sys/cmsis_gcc.h **** #if       (__CORTEX_M >= 0x03U)
 219:src/sys/cmsis_gcc.h **** 
 220:src/sys/cmsis_gcc.h **** /**
 221:src/sys/cmsis_gcc.h ****   \brief   Enable FIQ
 222:src/sys/cmsis_gcc.h ****   \details Enables FIQ interrupts by clearing the F-bit in the CPSR.
 223:src/sys/cmsis_gcc.h ****            Can only be executed in Privileged modes.
 224:src/sys/cmsis_gcc.h ****  */
 225:src/sys/cmsis_gcc.h **** __attribute__( ( always_inline ) ) __STATIC_INLINE void __enable_fault_irq(void)
 226:src/sys/cmsis_gcc.h **** {
 227:src/sys/cmsis_gcc.h ****   __ASM volatile ("cpsie f" : : : "memory");
 228:src/sys/cmsis_gcc.h **** }
 229:src/sys/cmsis_gcc.h **** 
 230:src/sys/cmsis_gcc.h **** 
 231:src/sys/cmsis_gcc.h **** /**
 232:src/sys/cmsis_gcc.h ****   \brief   Disable FIQ
 233:src/sys/cmsis_gcc.h ****   \details Disables FIQ interrupts by setting the F-bit in the CPSR.
 234:src/sys/cmsis_gcc.h ****            Can only be executed in Privileged modes.
 235:src/sys/cmsis_gcc.h ****  */
 236:src/sys/cmsis_gcc.h **** __attribute__( ( always_inline ) ) __STATIC_INLINE void __disable_fault_irq(void)
 237:src/sys/cmsis_gcc.h **** {
 238:src/sys/cmsis_gcc.h ****   __ASM volatile ("cpsid f" : : : "memory");
 239:src/sys/cmsis_gcc.h **** }
 240:src/sys/cmsis_gcc.h **** 
 241:src/sys/cmsis_gcc.h **** 
 242:src/sys/cmsis_gcc.h **** /**
 243:src/sys/cmsis_gcc.h ****   \brief   Get Base Priority
 244:src/sys/cmsis_gcc.h ****   \details Returns the current value of the Base Priority register.
 245:src/sys/cmsis_gcc.h ****   \return               Base Priority register value
 246:src/sys/cmsis_gcc.h ****  */
 247:src/sys/cmsis_gcc.h **** __attribute__( ( always_inline ) ) __STATIC_INLINE uint32_t __get_BASEPRI(void)
 248:src/sys/cmsis_gcc.h **** {
 249:src/sys/cmsis_gcc.h ****   uint32_t result;
 250:src/sys/cmsis_gcc.h **** 
 251:src/sys/cmsis_gcc.h ****   __ASM volatile ("MRS %0, basepri" : "=r" (result) );
 252:src/sys/cmsis_gcc.h ****   return(result);
 253:src/sys/cmsis_gcc.h **** }
 254:src/sys/cmsis_gcc.h **** 
 255:src/sys/cmsis_gcc.h **** 
 256:src/sys/cmsis_gcc.h **** /**
 257:src/sys/cmsis_gcc.h ****   \brief   Set Base Priority
 258:src/sys/cmsis_gcc.h ****   \details Assigns the given value to the Base Priority register.
 259:src/sys/cmsis_gcc.h ****   \param [in]    basePri  Base Priority value to set
 260:src/sys/cmsis_gcc.h ****  */
 261:src/sys/cmsis_gcc.h **** __attribute__( ( always_inline ) ) __STATIC_INLINE void __set_BASEPRI(uint32_t value)
 262:src/sys/cmsis_gcc.h **** {
 263:src/sys/cmsis_gcc.h ****   __ASM volatile ("MSR basepri, %0" : : "r" (value) : "memory");
 264:src/sys/cmsis_gcc.h **** }
 265:src/sys/cmsis_gcc.h **** 
 266:src/sys/cmsis_gcc.h **** 
 267:src/sys/cmsis_gcc.h **** /**
 268:src/sys/cmsis_gcc.h ****   \brief   Set Base Priority with condition
 269:src/sys/cmsis_gcc.h ****   \details Assigns the given value to the Base Priority register only if BASEPRI masking is disable
 270:src/sys/cmsis_gcc.h ****            or the new value increases the BASEPRI priority level.
 271:src/sys/cmsis_gcc.h ****   \param [in]    basePri  Base Priority value to set
 272:src/sys/cmsis_gcc.h ****  */
 273:src/sys/cmsis_gcc.h **** __attribute__( ( always_inline ) ) __STATIC_INLINE void __set_BASEPRI_MAX(uint32_t value)
 274:src/sys/cmsis_gcc.h **** {
 275:src/sys/cmsis_gcc.h ****   __ASM volatile ("MSR basepri_max, %0" : : "r" (value) : "memory");
 276:src/sys/cmsis_gcc.h **** }
 277:src/sys/cmsis_gcc.h **** 
 278:src/sys/cmsis_gcc.h **** 
 279:src/sys/cmsis_gcc.h **** /**
 280:src/sys/cmsis_gcc.h ****   \brief   Get Fault Mask
 281:src/sys/cmsis_gcc.h ****   \details Returns the current value of the Fault Mask register.
 282:src/sys/cmsis_gcc.h ****   \return               Fault Mask register value
 283:src/sys/cmsis_gcc.h ****  */
 284:src/sys/cmsis_gcc.h **** __attribute__( ( always_inline ) ) __STATIC_INLINE uint32_t __get_FAULTMASK(void)
 285:src/sys/cmsis_gcc.h **** {
 286:src/sys/cmsis_gcc.h ****   uint32_t result;
 287:src/sys/cmsis_gcc.h **** 
 288:src/sys/cmsis_gcc.h ****   __ASM volatile ("MRS %0, faultmask" : "=r" (result) );
 289:src/sys/cmsis_gcc.h ****   return(result);
 290:src/sys/cmsis_gcc.h **** }
 291:src/sys/cmsis_gcc.h **** 
 292:src/sys/cmsis_gcc.h **** 
 293:src/sys/cmsis_gcc.h **** /**
 294:src/sys/cmsis_gcc.h ****   \brief   Set Fault Mask
 295:src/sys/cmsis_gcc.h ****   \details Assigns the given value to the Fault Mask register.
 296:src/sys/cmsis_gcc.h ****   \param [in]    faultMask  Fault Mask value to set
 297:src/sys/cmsis_gcc.h ****  */
 298:src/sys/cmsis_gcc.h **** __attribute__( ( always_inline ) ) __STATIC_INLINE void __set_FAULTMASK(uint32_t faultMask)
 299:src/sys/cmsis_gcc.h **** {
 300:src/sys/cmsis_gcc.h ****   __ASM volatile ("MSR faultmask, %0" : : "r" (faultMask) : "memory");
 301:src/sys/cmsis_gcc.h **** }
 302:src/sys/cmsis_gcc.h **** 
 303:src/sys/cmsis_gcc.h **** #endif /* (__CORTEX_M >= 0x03U) */
 304:src/sys/cmsis_gcc.h **** 
 305:src/sys/cmsis_gcc.h **** 
 306:src/sys/cmsis_gcc.h **** #if       (__CORTEX_M == 0x04U) || (__CORTEX_M == 0x07U)
 307:src/sys/cmsis_gcc.h **** 
 308:src/sys/cmsis_gcc.h **** /**
 309:src/sys/cmsis_gcc.h ****   \brief   Get FPSCR
 310:src/sys/cmsis_gcc.h ****   \details Returns the current value of the Floating Point Status/Control register.
 311:src/sys/cmsis_gcc.h ****   \return               Floating Point Status/Control register value
 312:src/sys/cmsis_gcc.h ****  */
 313:src/sys/cmsis_gcc.h **** __attribute__( ( always_inline ) ) __STATIC_INLINE uint32_t __get_FPSCR(void)
 314:src/sys/cmsis_gcc.h **** {
 315:src/sys/cmsis_gcc.h **** #if (__FPU_PRESENT == 1U) && (__FPU_USED == 1U)
 316:src/sys/cmsis_gcc.h ****   uint32_t result;
 317:src/sys/cmsis_gcc.h **** 
 318:src/sys/cmsis_gcc.h ****   /* Empty asm statement works as a scheduling barrier */
 319:src/sys/cmsis_gcc.h ****   __ASM volatile ("");
 320:src/sys/cmsis_gcc.h ****   __ASM volatile ("VMRS %0, fpscr" : "=r" (result) );
 321:src/sys/cmsis_gcc.h ****   __ASM volatile ("");
 322:src/sys/cmsis_gcc.h ****   return(result);
 323:src/sys/cmsis_gcc.h **** #else
 324:src/sys/cmsis_gcc.h ****    return(0);
 325:src/sys/cmsis_gcc.h **** #endif
 326:src/sys/cmsis_gcc.h **** }
 327:src/sys/cmsis_gcc.h **** 
 328:src/sys/cmsis_gcc.h **** 
 329:src/sys/cmsis_gcc.h **** /**
 330:src/sys/cmsis_gcc.h ****   \brief   Set FPSCR
 331:src/sys/cmsis_gcc.h ****   \details Assigns the given value to the Floating Point Status/Control register.
 332:src/sys/cmsis_gcc.h ****   \param [in]    fpscr  Floating Point Status/Control value to set
 333:src/sys/cmsis_gcc.h ****  */
 334:src/sys/cmsis_gcc.h **** __attribute__( ( always_inline ) ) __STATIC_INLINE void __set_FPSCR(uint32_t fpscr)
 335:src/sys/cmsis_gcc.h **** {
 336:src/sys/cmsis_gcc.h **** #if (__FPU_PRESENT == 1U) && (__FPU_USED == 1U)
 337:src/sys/cmsis_gcc.h ****   /* Empty asm statement works as a scheduling barrier */
 338:src/sys/cmsis_gcc.h ****   __ASM volatile ("");
 339:src/sys/cmsis_gcc.h ****   __ASM volatile ("VMSR fpscr, %0" : : "r" (fpscr) : "vfpcc");
 340:src/sys/cmsis_gcc.h ****   __ASM volatile ("");
 341:src/sys/cmsis_gcc.h **** #endif
 342:src/sys/cmsis_gcc.h **** }
 343:src/sys/cmsis_gcc.h **** 
 344:src/sys/cmsis_gcc.h **** #endif /* (__CORTEX_M == 0x04U) || (__CORTEX_M == 0x07U) */
 345:src/sys/cmsis_gcc.h **** 
 346:src/sys/cmsis_gcc.h **** 
 347:src/sys/cmsis_gcc.h **** 
 348:src/sys/cmsis_gcc.h **** /*@} end of CMSIS_Core_RegAccFunctions */
 349:src/sys/cmsis_gcc.h **** 
 350:src/sys/cmsis_gcc.h **** 
 351:src/sys/cmsis_gcc.h **** /* ##########################  Core Instruction Access  ######################### */
 352:src/sys/cmsis_gcc.h **** /** \defgroup CMSIS_Core_InstructionInterface CMSIS Core Instruction Interface
 353:src/sys/cmsis_gcc.h ****   Access to dedicated instructions
 354:src/sys/cmsis_gcc.h ****   @{
 355:src/sys/cmsis_gcc.h **** */
 356:src/sys/cmsis_gcc.h **** 
 357:src/sys/cmsis_gcc.h **** /* Define macros for porting to both thumb1 and thumb2.
 358:src/sys/cmsis_gcc.h ****  * For thumb1, use low register (r0-r7), specified by constraint "l"
 359:src/sys/cmsis_gcc.h ****  * Otherwise, use general registers, specified by constraint "r" */
 360:src/sys/cmsis_gcc.h **** #if defined (__thumb__) && !defined (__thumb2__)
 361:src/sys/cmsis_gcc.h **** #define __CMSIS_GCC_OUT_REG(r) "=l" (r)
 362:src/sys/cmsis_gcc.h **** #define __CMSIS_GCC_USE_REG(r) "l" (r)
 363:src/sys/cmsis_gcc.h **** #else
 364:src/sys/cmsis_gcc.h **** #define __CMSIS_GCC_OUT_REG(r) "=r" (r)
 365:src/sys/cmsis_gcc.h **** #define __CMSIS_GCC_USE_REG(r) "r" (r)
 366:src/sys/cmsis_gcc.h **** #endif
 367:src/sys/cmsis_gcc.h **** 
 368:src/sys/cmsis_gcc.h **** /**
 369:src/sys/cmsis_gcc.h ****   \brief   No Operation
 370:src/sys/cmsis_gcc.h ****   \details No Operation does nothing. This instruction can be used for code alignment purposes.
 371:src/sys/cmsis_gcc.h ****  */
 372:src/sys/cmsis_gcc.h **** __attribute__((always_inline)) __STATIC_INLINE void __NOP(void)
 373:src/sys/cmsis_gcc.h **** {
 374:src/sys/cmsis_gcc.h ****   __ASM volatile ("nop");
 375:src/sys/cmsis_gcc.h **** }
 376:src/sys/cmsis_gcc.h **** 
 377:src/sys/cmsis_gcc.h **** 
 378:src/sys/cmsis_gcc.h **** /**
 379:src/sys/cmsis_gcc.h ****   \brief   Wait For Interrupt
 380:src/sys/cmsis_gcc.h ****   \details Wait For Interrupt is a hint instruction that suspends execution until one of a number o
 381:src/sys/cmsis_gcc.h ****  */
 382:src/sys/cmsis_gcc.h **** __attribute__((always_inline)) __STATIC_INLINE void __WFI(void)
 383:src/sys/cmsis_gcc.h **** {
 384:src/sys/cmsis_gcc.h ****   __ASM volatile ("wfi");
 385:src/sys/cmsis_gcc.h **** }
 386:src/sys/cmsis_gcc.h **** 
 387:src/sys/cmsis_gcc.h **** 
 388:src/sys/cmsis_gcc.h **** /**
 389:src/sys/cmsis_gcc.h ****   \brief   Wait For Event
 390:src/sys/cmsis_gcc.h ****   \details Wait For Event is a hint instruction that permits the processor to enter
 391:src/sys/cmsis_gcc.h ****     a low-power state until one of a number of events occurs.
 392:src/sys/cmsis_gcc.h ****  */
 393:src/sys/cmsis_gcc.h **** __attribute__((always_inline)) __STATIC_INLINE void __WFE(void)
 394:src/sys/cmsis_gcc.h **** {
 395:src/sys/cmsis_gcc.h ****   __ASM volatile ("wfe");
 396:src/sys/cmsis_gcc.h **** }
 397:src/sys/cmsis_gcc.h **** 
 398:src/sys/cmsis_gcc.h **** 
 399:src/sys/cmsis_gcc.h **** /**
 400:src/sys/cmsis_gcc.h ****   \brief   Send Event
 401:src/sys/cmsis_gcc.h ****   \details Send Event is a hint instruction. It causes an event to be signaled to the CPU.
 402:src/sys/cmsis_gcc.h ****  */
 403:src/sys/cmsis_gcc.h **** __attribute__((always_inline)) __STATIC_INLINE void __SEV(void)
 404:src/sys/cmsis_gcc.h **** {
 405:src/sys/cmsis_gcc.h ****   __ASM volatile ("sev");
 406:src/sys/cmsis_gcc.h **** }
 407:src/sys/cmsis_gcc.h **** 
 408:src/sys/cmsis_gcc.h **** 
 409:src/sys/cmsis_gcc.h **** /**
 410:src/sys/cmsis_gcc.h ****   \brief   Instruction Synchronization Barrier
 411:src/sys/cmsis_gcc.h ****   \details Instruction Synchronization Barrier flushes the pipeline in the processor,
 412:src/sys/cmsis_gcc.h ****            so that all instructions following the ISB are fetched from cache or memory,
 413:src/sys/cmsis_gcc.h ****            after the instruction has been completed.
 414:src/sys/cmsis_gcc.h ****  */
 415:src/sys/cmsis_gcc.h **** __attribute__((always_inline)) __STATIC_INLINE void __ISB(void)
 416:src/sys/cmsis_gcc.h **** {
 417:src/sys/cmsis_gcc.h ****   __ASM volatile ("isb 0xF":::"memory");
 418:src/sys/cmsis_gcc.h **** }
 419:src/sys/cmsis_gcc.h **** 
 420:src/sys/cmsis_gcc.h **** 
 421:src/sys/cmsis_gcc.h **** /**
 422:src/sys/cmsis_gcc.h ****   \brief   Data Synchronization Barrier
 423:src/sys/cmsis_gcc.h ****   \details Acts as a special kind of Data Memory Barrier.
 424:src/sys/cmsis_gcc.h ****            It completes when all explicit memory accesses before this instruction complete.
 425:src/sys/cmsis_gcc.h ****  */
 426:src/sys/cmsis_gcc.h **** __attribute__((always_inline)) __STATIC_INLINE void __DSB(void)
 114              		.loc 2 426 53 view .LVU28
 115              	.LBB17:
 427:src/sys/cmsis_gcc.h **** {
 428:src/sys/cmsis_gcc.h ****   __ASM volatile ("dsb 0xF":::"memory");
 116              		.loc 2 428 3 view .LVU29
 117              		.syntax unified
 118              	@ 428 "src/sys/cmsis_gcc.h" 1
 119 0046 BFF34F8F 		dsb 0xF
 120              	@ 0 "" 2
 121              		.thumb
 122              		.syntax unified
 123              	.LBE17:
 124              	.LBE16:
  23:src/sys/clock.c **** }
 125              		.loc 1 23 1 is_stmt 0 view .LVU30
 126 004a 7047     		bx	lr
 127              	.L9:
 128              		.align	2
 129              	.L8:
 130 004c 00000000 		.word	RCC
 131              		.cfi_endproc
 132              	.LFE398:
 133              		.size	stop_PLL, .-stop_PLL
 134              		.align	1
 135              		.global	set_SYSCLK
 136              		.syntax unified
 137              		.thumb
 138              		.thumb_func
 139              		.type	set_SYSCLK, %function
 140              	set_SYSCLK:
 141              	.LVL4:
 142              	.LFB399:
  24:src/sys/clock.c **** 
  25:src/sys/clock.c **** void set_SYSCLK(SW SRC) {
 143              		.loc 1 25 25 is_stmt 1 view -0
 144              		.cfi_startproc
 145              		@ args = 0, pretend = 0, frame = 0
 146              		@ frame_needed = 0, uses_anonymous_args = 0
 147              		@ link register save eliminated.
  26:src/sys/clock.c ****   RCC.CFGR = (RCC.CFGR & ~(0x3<<0)) | ((SRC & 0x3)<<0);
 148              		.loc 1 26 3 view .LVU32
 149              		.loc 1 26 18 is_stmt 0 view .LVU33
 150 0050 054A     		ldr	r2, .L13
 151 0052 9368     		ldr	r3, [r2, #8]
 152              		.loc 1 26 37 view .LVU34
 153 0054 60F30103 		bfi	r3, r0, #0, #2
 154              		.loc 1 26 12 view .LVU35
 155 0058 9360     		str	r3, [r2, #8]
  27:src/sys/clock.c ****   while (((RCC.CFGR>>2) & 3)!=SRC);
 156              		.loc 1 27 3 is_stmt 1 view .LVU36
 157              	.L11:
 158              		.loc 1 27 29 discriminator 1 view .LVU37
 159              		.loc 1 27 15 is_stmt 0 discriminator 1 view .LVU38
 160 005a 9368     		ldr	r3, [r2, #8]
 161              		.loc 1 27 25 discriminator 1 view .LVU39
 162 005c C3F38103 		ubfx	r3, r3, #2, #2
 163              		.loc 1 27 29 discriminator 1 view .LVU40
 164 0060 8342     		cmp	r3, r0
 165 0062 FAD1     		bne	.L11
  28:src/sys/clock.c **** }
 166              		.loc 1 28 1 view .LVU41
 167 0064 7047     		bx	lr
 168              	.L14:
 169 0066 00BF     		.align	2
 170              	.L13:
 171 0068 00000000 		.word	RCC
 172              		.cfi_endproc
 173              	.LFE399:
 174              		.size	set_SYSCLK, .-set_SYSCLK
 175              		.align	1
 176              		.global	set_bus_clock_dividers_exp
 177              		.syntax unified
 178              		.thumb
 179              		.thumb_func
 180              		.type	set_bus_clock_dividers_exp, %function
 181              	set_bus_clock_dividers_exp:
 182              	.LVL5:
 183              	.LFB400:
  29:src/sys/clock.c **** 
  30:src/sys/clock.c **** void set_bus_clock_dividers_exp(uint32_t HPRE_exp,
  31:src/sys/clock.c **** 				uint32_t PPRE1_exp,
  32:src/sys/clock.c **** 				uint32_t PPRE2_exp,
  33:src/sys/clock.c **** 				uint32_t TIMPRE_exp) {
 184              		.loc 1 33 26 is_stmt 1 view -0
 185              		.cfi_startproc
 186              		@ args = 0, pretend = 0, frame = 0
 187              		@ frame_needed = 0, uses_anonymous_args = 0
  34:src/sys/clock.c ****   uint32_t HPRE =(HPRE_exp==0?0:(0x8|((HPRE_exp-1) & 0x7)));
 188              		.loc 1 34 3 view .LVU43
  33:src/sys/clock.c ****   uint32_t HPRE =(HPRE_exp==0?0:(0x8|((HPRE_exp-1) & 0x7)));
 189              		.loc 1 33 26 is_stmt 0 view .LVU44
 190 006c 30B5     		push	{r4, r5, lr}
 191              		.cfi_def_cfa_offset 12
 192              		.cfi_offset 4, -12
 193              		.cfi_offset 5, -8
 194              		.cfi_offset 14, -4
 195              		.loc 1 34 32 view .LVU45
 196 006e 20B1     		cbz	r0, .L16
 197              		.loc 1 34 48 discriminator 1 view .LVU46
 198 0070 0138     		subs	r0, r0, #1
 199              	.LVL6:
 200              		.loc 1 34 52 discriminator 1 view .LVU47
 201 0072 00F00700 		and	r0, r0, #7
 202              	.LVL7:
 203              		.loc 1 34 32 discriminator 1 view .LVU48
 204 0076 40F00800 		orr	r0, r0, #8
 205              	.L16:
 206              	.LVL8:
  35:src/sys/clock.c ****   uint32_t PPRE1=(PPRE1_exp==0?0:(0x4|((PPRE1_exp-1) & 0x3)));
 207              		.loc 1 35 3 is_stmt 1 view .LVU49
 208              		.loc 1 35 33 is_stmt 0 view .LVU50
 209 007a 21B1     		cbz	r1, .L17
 210              		.loc 1 35 50 discriminator 1 view .LVU51
 211 007c 0139     		subs	r1, r1, #1
 212              	.LVL9:
 213              		.loc 1 35 54 discriminator 1 view .LVU52
 214 007e 01F00301 		and	r1, r1, #3
 215              	.LVL10:
 216              		.loc 1 35 33 discriminator 1 view .LVU53
 217 0082 41F00401 		orr	r1, r1, #4
 218              	.L17:
 219              	.LVL11:
  36:src/sys/clock.c ****   uint32_t PPRE2=(PPRE2_exp==0?0:(0x4|((PPRE2_exp-1) & 0x3)));
 220              		.loc 1 36 3 is_stmt 1 view .LVU54
 221              		.loc 1 36 33 is_stmt 0 view .LVU55
 222 0086 22B1     		cbz	r2, .L18
 223              		.loc 1 36 50 discriminator 1 view .LVU56
 224 0088 013A     		subs	r2, r2, #1
 225              	.LVL12:
 226              		.loc 1 36 54 discriminator 1 view .LVU57
 227 008a 02F00302 		and	r2, r2, #3
 228              	.LVL13:
 229              		.loc 1 36 33 discriminator 1 view .LVU58
 230 008e 42F00402 		orr	r2, r2, #4
 231              	.L18:
 232              	.LVL14:
  37:src/sys/clock.c ****   uint32_t TIMPRE=((TIMPRE_exp - 1) & 1);
 233              		.loc 1 37 3 is_stmt 1 view .LVU59
  38:src/sys/clock.c ****   RCC.CFGR=
 234              		.loc 1 38 3 view .LVU60
  39:src/sys/clock.c ****     (RCC.CFGR & ~0xfcf0) |
 235              		.loc 1 39 9 is_stmt 0 view .LVU61
 236 0092 0A4D     		ldr	r5, .L28
 237 0094 AC68     		ldr	r4, [r5, #8]
 238              		.loc 1 39 15 view .LVU62
 239 0096 24F47C44 		bic	r4, r4, #64512
 240 009a 24F0F004 		bic	r4, r4, #240
 241              		.loc 1 39 26 view .LVU63
 242 009e 44EA0014 		orr	r4, r4, r0, lsl #4
 243 00a2 44EA8121 		orr	r1, r4, r1, lsl #10
 244              	.LVL15:
 245              		.loc 1 39 26 view .LVU64
 246 00a6 41EA4232 		orr	r2, r1, r2, lsl #13
 247              	.LVL16:
  38:src/sys/clock.c ****   RCC.CFGR=
 248              		.loc 1 38 11 view .LVU65
 249 00aa AA60     		str	r2, [r5, #8]
  40:src/sys/clock.c ****     ((HPRE<<4) | (PPRE1<<10) | (PPRE2<<13));
  41:src/sys/clock.c ****   RCC.DCKCFGR = (RCC.DCKCFGR & ~(1<<24)) | (TIMPRE<<24);
 250              		.loc 1 41 3 is_stmt 1 view .LVU66
 251              		.loc 1 41 21 is_stmt 0 view .LVU67
 252 00ac D5F88C20 		ldr	r2, [r5, #140]
  37:src/sys/clock.c ****   RCC.CFGR=
 253              		.loc 1 37 32 view .LVU68
 254 00b0 013B     		subs	r3, r3, #1
 255              	.LVL17:
 256              		.loc 1 41 42 view .LVU69
 257 00b2 63F31862 		bfi	r2, r3, #24, #1
 258              		.loc 1 41 15 view .LVU70
 259 00b6 C5F88C20 		str	r2, [r5, #140]
  42:src/sys/clock.c **** }
 260              		.loc 1 42 1 view .LVU71
 261 00ba 30BD     		pop	{r4, r5, pc}
 262              	.L29:
 263              		.align	2
 264              	.L28:
 265 00bc 00000000 		.word	RCC
 266              		.cfi_endproc
 267              	.LFE400:
 268              		.size	set_bus_clock_dividers_exp, .-set_bus_clock_dividers_exp
 269              		.align	1
 270              		.global	set_MCO
 271              		.syntax unified
 272              		.thumb
 273              		.thumb_func
 274              		.type	set_MCO, %function
 275              	set_MCO:
 276              	.LVL18:
 277              	.LFB401:
  43:src/sys/clock.c **** 
  44:src/sys/clock.c **** void set_MCO(MCO1SRC SRC1,uint32_t DIV1,MCO2SRC SRC2,uint32_t DIV2) {
 278              		.loc 1 44 69 is_stmt 1 view -0
 279              		.cfi_startproc
 280              		@ args = 0, pretend = 0, frame = 0
 281              		@ frame_needed = 0, uses_anonymous_args = 0
  45:src/sys/clock.c ****   uint32_t MCO1=SRC1&0x3;
 282              		.loc 1 45 3 view .LVU73
  44:src/sys/clock.c ****   uint32_t MCO1=SRC1&0x3;
 283              		.loc 1 44 69 is_stmt 0 view .LVU74
 284 00c0 30B5     		push	{r4, r5, lr}
 285              		.cfi_def_cfa_offset 12
 286              		.cfi_offset 4, -12
 287              		.cfi_offset 5, -8
 288              		.cfi_offset 14, -4
  46:src/sys/clock.c ****   uint32_t MCO2=SRC2&0x3;
  47:src/sys/clock.c ****   uint32_t MCO1PRE=((DIV1<=1)?0:((DIV1+2)&0x7));
  48:src/sys/clock.c ****   uint32_t MCO2PRE=((DIV2<=1)?0:((DIV2+2)&0x7));
  49:src/sys/clock.c ****   RCC.CFGR = (RCC.CFGR & ~0xff600000) |
 289              		.loc 1 49 18 view .LVU75
 290 00c2 114D     		ldr	r5, .L35
 291 00c4 AC68     		ldr	r4, [r5, #8]
  47:src/sys/clock.c ****   uint32_t MCO2PRE=((DIV2<=1)?0:((DIV2+2)&0x7));
 292              		.loc 1 47 32 view .LVU76
 293 00c6 0129     		cmp	r1, #1
 294              		.loc 1 49 24 view .LVU77
 295 00c8 24F07F44 		bic	r4, r4, #-16777216
  47:src/sys/clock.c ****   uint32_t MCO2PRE=((DIV2<=1)?0:((DIV2+2)&0x7));
 296              		.loc 1 47 39 discriminator 1 view .LVU78
 297 00cc 88BF     		it	hi
 298 00ce 0231     		addhi	r1, r1, #2
 299              	.LVL19:
  46:src/sys/clock.c ****   uint32_t MCO2=SRC2&0x3;
 300              		.loc 1 46 12 view .LVU79
 301 00d0 02F00302 		and	r2, r2, #3
 302              	.LVL20:
 303              		.loc 1 49 24 view .LVU80
 304 00d4 24F4C004 		bic	r4, r4, #6291456
  47:src/sys/clock.c ****   uint32_t MCO2PRE=((DIV2<=1)?0:((DIV2+2)&0x7));
 305              		.loc 1 47 32 discriminator 1 view .LVU81
 306 00d8 8CBF     		ite	hi
 307 00da 01F00701 		andhi	r1, r1, #7
  47:src/sys/clock.c ****   uint32_t MCO2PRE=((DIV2<=1)?0:((DIV2+2)&0x7));
 308              		.loc 1 47 32 discriminator 2 view .LVU82
 309 00de 0021     		movls	r1, #0
  45:src/sys/clock.c ****   uint32_t MCO2=SRC2&0x3;
 310              		.loc 1 45 12 view .LVU83
 311 00e0 00F00300 		and	r0, r0, #3
 312              	.LVL21:
  46:src/sys/clock.c ****   uint32_t MCO2=SRC2&0x3;
 313              		.loc 1 46 3 is_stmt 1 view .LVU84
  47:src/sys/clock.c ****   uint32_t MCO2PRE=((DIV2<=1)?0:((DIV2+2)&0x7));
 314              		.loc 1 47 3 view .LVU85
  48:src/sys/clock.c ****   RCC.CFGR = (RCC.CFGR & ~0xff600000) |
 315              		.loc 1 48 3 view .LVU86
  48:src/sys/clock.c ****   RCC.CFGR = (RCC.CFGR & ~0xff600000) |
 316              		.loc 1 48 32 is_stmt 0 view .LVU87
 317 00e4 012B     		cmp	r3, #1
 318              		.loc 1 49 39 view .LVU88
 319 00e6 44EA8274 		orr	r4, r4, r2, lsl #30
  48:src/sys/clock.c ****   RCC.CFGR = (RCC.CFGR & ~0xff600000) |
 320              		.loc 1 48 39 discriminator 1 view .LVU89
 321 00ea 88BF     		it	hi
 322 00ec 0233     		addhi	r3, r3, #2
 323              	.LVL22:
 324              		.loc 1 49 39 view .LVU90
 325 00ee 44EA4054 		orr	r4, r4, r0, lsl #21
  48:src/sys/clock.c ****   RCC.CFGR = (RCC.CFGR & ~0xff600000) |
 326              		.loc 1 48 32 discriminator 1 view .LVU91
 327 00f2 8CBF     		ite	hi
 328 00f4 03F00703 		andhi	r3, r3, #7
  48:src/sys/clock.c ****   RCC.CFGR = (RCC.CFGR & ~0xff600000) |
 329              		.loc 1 48 32 discriminator 2 view .LVU92
 330 00f8 0023     		movls	r3, #0
 331              	.LVL23:
 332              		.loc 1 49 3 is_stmt 1 view .LVU93
 333              		.loc 1 49 39 is_stmt 0 view .LVU94
 334 00fa 44EA0164 		orr	r4, r4, r1, lsl #24
 335 00fe 44EAC364 		orr	r4, r4, r3, lsl #27
 336              		.loc 1 49 12 view .LVU95
 337 0102 AC60     		str	r4, [r5, #8]
  50:src/sys/clock.c ****     ((MCO1<<21) | (MCO1PRE<<24) |
  51:src/sys/clock.c ****      (MCO2PRE<<27) | (MCO2<<30));
  52:src/sys/clock.c **** }
 338              		.loc 1 52 1 view .LVU96
 339 0104 30BD     		pop	{r4, r5, pc}
 340              	.L36:
 341 0106 00BF     		.align	2
 342              	.L35:
 343 0108 00000000 		.word	RCC
 344              		.cfi_endproc
 345              	.LFE401:
 346              		.size	set_MCO, .-set_MCO
 347              		.align	1
 348              		.global	enable_MCO_GPIO
 349              		.syntax unified
 350              		.thumb
 351              		.thumb_func
 352              		.type	enable_MCO_GPIO, %function
 353              	enable_MCO_GPIO:
 354              	.LFB402:
  53:src/sys/clock.c **** 
  54:src/sys/clock.c **** void enable_MCO_GPIO() {
 355              		.loc 1 54 24 is_stmt 1 view -0
 356              		.cfi_startproc
 357              		@ args = 0, pretend = 0, frame = 0
 358              		@ frame_needed = 0, uses_anonymous_args = 0
 359              		@ link register save eliminated.
  55:src/sys/clock.c **** 
  56:src/sys/clock.c ****   enable_GPIOA();
 360              		.loc 1 56 3 view .LVU98
 361              	.LBB18:
 362              	.LBI18:
 363              		.file 3 "src/sys/devices.h"
   1:src/sys/devices.h **** #ifndef __IO_H
   2:src/sys/devices.h **** #define __IO_H
   3:src/sys/devices.h **** 
   4:src/sys/devices.h **** #include<stdint.h>
   5:src/sys/devices.h **** #include "cm4.h"
   6:src/sys/devices.h **** 
   7:src/sys/devices.h **** #define __reserved(offset) \
   8:src/sys/devices.h ****   uint32_t _reserved_ ## offset
   9:src/sys/devices.h **** 
  10:src/sys/devices.h **** #define __reserved_interval(offset1,offset2) \
  11:src/sys/devices.h ****   uint32_t _reserved_ ## offset1 ## _ ## offset2[((offset2)-(offset1))/4]
  12:src/sys/devices.h **** 
  13:src/sys/devices.h **** /* PM §4.2.10 */ 
  14:src/sys/devices.h **** struct MPU_registers {
  15:src/sys/devices.h ****   uint32_t TYPER;
  16:src/sys/devices.h ****   uint32_t CTRL;
  17:src/sys/devices.h ****   uint32_t RNR;
  18:src/sys/devices.h ****   uint32_t RBAR;
  19:src/sys/devices.h ****   uint32_t RASR;
  20:src/sys/devices.h ****   uint32_t RBAR_A1;
  21:src/sys/devices.h ****   uint32_t RASR_A1;
  22:src/sys/devices.h ****   uint32_t RBAR_A2;
  23:src/sys/devices.h ****   uint32_t RASR_A2;
  24:src/sys/devices.h ****   uint32_t RBAR_A3;
  25:src/sys/devices.h ****   uint32_t RASR_A3;
  26:src/sys/devices.h **** };
  27:src/sys/devices.h **** 
  28:src/sys/devices.h **** /* PM §4.3.11 */ 
  29:src/sys/devices.h **** struct NVIC_registers {
  30:src/sys/devices.h ****   uint32_t ISER[3];
  31:src/sys/devices.h ****   __reserved_interval(0x0c,0x80);
  32:src/sys/devices.h ****   uint32_t ICER[3];
  33:src/sys/devices.h ****   __reserved_interval(0x8c,0x100);
  34:src/sys/devices.h ****   uint32_t ISPR[3];
  35:src/sys/devices.h ****   __reserved_interval(0x10c,0x180);
  36:src/sys/devices.h ****   uint32_t ICPR[3];
  37:src/sys/devices.h ****   __reserved_interval(0x18c,0x200);
  38:src/sys/devices.h ****   uint32_t IABR[3];
  39:src/sys/devices.h ****   __reserved_interval(0x20c,0x300);
  40:src/sys/devices.h ****   uint8_t  IP[81];
  41:src/sys/devices.h ****   uint8_t _reserved_bytes[3];
  42:src/sys/devices.h **** };
  43:src/sys/devices.h **** 
  44:src/sys/devices.h **** /* PM §4.4.19 */ 
  45:src/sys/devices.h **** struct SCB_registers {
  46:src/sys/devices.h ****   uint32_t CPUID;
  47:src/sys/devices.h ****   uint32_t ICSR;
  48:src/sys/devices.h ****   uint32_t VTOR;
  49:src/sys/devices.h ****   uint32_t AIRCR;
  50:src/sys/devices.h ****   uint32_t SCR;
  51:src/sys/devices.h ****   uint32_t CCR;
  52:src/sys/devices.h ****   uint32_t SHPR1;
  53:src/sys/devices.h ****   uint32_t SHPR2;
  54:src/sys/devices.h ****   uint32_t SHPR3;
  55:src/sys/devices.h ****   uint32_t SHCRS;
  56:src/sys/devices.h ****   uint32_t CFSR;
  57:src/sys/devices.h ****   uint32_t HFSR;
  58:src/sys/devices.h ****   uint32_t MMAR;
  59:src/sys/devices.h ****   uint32_t BFAR;
  60:src/sys/devices.h ****   uint32_t AFSR;
  61:src/sys/devices.h **** };
  62:src/sys/devices.h **** 
  63:src/sys/devices.h **** /* PM §4.5.6 */ 
  64:src/sys/devices.h **** struct STK_registers {
  65:src/sys/devices.h ****   uint32_t CTRL;
  66:src/sys/devices.h ****   uint32_t LOAD;
  67:src/sys/devices.h ****   uint32_t VAL;
  68:src/sys/devices.h ****   uint32_t CALIB;
  69:src/sys/devices.h **** };
  70:src/sys/devices.h **** 
  71:src/sys/devices.h **** /* PM §4.6 */ 
  72:src/sys/devices.h **** struct FPU_registers {
  73:src/sys/devices.h ****   __reserved(0x0);
  74:src/sys/devices.h ****   uint32_t CCR;
  75:src/sys/devices.h ****   uint32_t CAR;
  76:src/sys/devices.h ****   uint32_t DSCR;
  77:src/sys/devices.h **** };
  78:src/sys/devices.h **** 
  79:src/sys/devices.h **** 
  80:src/sys/devices.h **** /* RM §3.6.7 */ 
  81:src/sys/devices.h **** struct FLASH_registers {
  82:src/sys/devices.h ****   uint32_t ACR;
  83:src/sys/devices.h ****   uint32_t KEYR;
  84:src/sys/devices.h ****   uint32_t OPTKEYR;
  85:src/sys/devices.h ****   uint32_t SR;
  86:src/sys/devices.h ****   uint32_t CR;
  87:src/sys/devices.h ****   uint32_t OPTCR;  
  88:src/sys/devices.h **** };
  89:src/sys/devices.h **** 
  90:src/sys/devices.h **** /* RM §4.4.4 */
  91:src/sys/devices.h **** struct CRC_registers {
  92:src/sys/devices.h ****   uint32_t DR;
  93:src/sys/devices.h ****   uint32_t ICR;
  94:src/sys/devices.h ****   uint32_t CR;
  95:src/sys/devices.h **** };
  96:src/sys/devices.h **** 
  97:src/sys/devices.h **** /* RM §5.5 */
  98:src/sys/devices.h **** struct PWR_registers {
  99:src/sys/devices.h ****   uint32_t CR;
 100:src/sys/devices.h ****   uint32_t CSR;
 101:src/sys/devices.h **** };
 102:src/sys/devices.h **** 
 103:src/sys/devices.h **** /* RM §6.3.28 */
 104:src/sys/devices.h **** struct RCC_registers {
 105:src/sys/devices.h ****   uint32_t CR;
 106:src/sys/devices.h ****   uint32_t PLLCFGR;
 107:src/sys/devices.h ****   uint32_t CFGR;
 108:src/sys/devices.h ****   uint32_t CIR;
 109:src/sys/devices.h ****   uint32_t AHB1RSTR;
 110:src/sys/devices.h ****   uint32_t AHB2RSTR;
 111:src/sys/devices.h ****   uint32_t AHB3RSTR;
 112:src/sys/devices.h ****   __reserved(0x1c);
 113:src/sys/devices.h ****   uint32_t APB1RSTR;
 114:src/sys/devices.h ****   uint32_t APB2RSTR;
 115:src/sys/devices.h ****   __reserved(0x28);
 116:src/sys/devices.h ****   __reserved(0x2c);
 117:src/sys/devices.h ****   uint32_t AHB1ENR;
 118:src/sys/devices.h ****   uint32_t AHB2ENR;
 119:src/sys/devices.h ****   uint32_t AHB3ENR;
 120:src/sys/devices.h ****   __reserved(0x3c);
 121:src/sys/devices.h ****   uint32_t APB1ENR;
 122:src/sys/devices.h ****   uint32_t APB2ENR;
 123:src/sys/devices.h ****   __reserved(0x48);
 124:src/sys/devices.h ****   __reserved(0x4c);
 125:src/sys/devices.h ****   uint32_t AHB1LPENR;
 126:src/sys/devices.h ****   uint32_t AHB2LPENR;
 127:src/sys/devices.h ****   uint32_t AHB3LPENR;
 128:src/sys/devices.h ****   __reserved(0x5c);
 129:src/sys/devices.h ****   uint32_t APB1LPENR;
 130:src/sys/devices.h ****   uint32_t APB2LPENR;
 131:src/sys/devices.h ****   __reserved(0x68);
 132:src/sys/devices.h ****   __reserved(0x6c);
 133:src/sys/devices.h ****   uint32_t BDCR;
 134:src/sys/devices.h ****   uint32_t CSR;
 135:src/sys/devices.h ****   __reserved(0x78);
 136:src/sys/devices.h ****   __reserved(0x7c);
 137:src/sys/devices.h ****   uint32_t SSCGR;
 138:src/sys/devices.h ****   uint32_t PLLI2SCFGR;
 139:src/sys/devices.h ****   uint32_t PLLSAICFGR;
 140:src/sys/devices.h ****   uint32_t DCKCFGR;
 141:src/sys/devices.h ****   uint32_t CKGATENR;
 142:src/sys/devices.h ****   uint32_t DCKCFGR2;
 143:src/sys/devices.h **** };
 144:src/sys/devices.h **** 
 145:src/sys/devices.h **** /* RM §7.4.11 */
 146:src/sys/devices.h **** struct GPIO_registers {
 147:src/sys/devices.h ****   uint32_t MODER;
 148:src/sys/devices.h ****   uint32_t OTYPER;
 149:src/sys/devices.h ****   uint32_t OSPEEDR;
 150:src/sys/devices.h ****   uint32_t PUPDR;
 151:src/sys/devices.h ****   uint32_t IDR;
 152:src/sys/devices.h ****   uint32_t ODR;
 153:src/sys/devices.h ****   uint32_t BSRR;
 154:src/sys/devices.h ****   uint32_t LCKR;
 155:src/sys/devices.h ****   uint32_t AFRL;
 156:src/sys/devices.h ****   uint32_t AFRH;
 157:src/sys/devices.h **** };
 158:src/sys/devices.h **** 
 159:src/sys/devices.h **** /* RM §8.2.9 */
 160:src/sys/devices.h **** struct SYSCFG_registers {
 161:src/sys/devices.h ****   uint32_t MEMRMP;
 162:src/sys/devices.h ****   uint32_t PMC;
 163:src/sys/devices.h ****   uint32_t EXTICR1;
 164:src/sys/devices.h ****   uint32_t EXTICR2;
 165:src/sys/devices.h ****   uint32_t EXTICR3;
 166:src/sys/devices.h ****   uint32_t EXTICR4;
 167:src/sys/devices.h ****   __reserved(0x18);
 168:src/sys/devices.h ****   __reserved(0x1c);
 169:src/sys/devices.h ****   uint32_t CMPCR;
 170:src/sys/devices.h ****   __reserved(0x24);
 171:src/sys/devices.h ****   __reserved(0x28);
 172:src/sys/devices.h ****   uint32_t CFGR;
 173:src/sys/devices.h **** };
 174:src/sys/devices.h **** 
 175:src/sys/devices.h **** /* RM §9.5.11 */
 176:src/sys/devices.h **** struct DMA_Sx_registers {
 177:src/sys/devices.h ****   uint32_t CR;
 178:src/sys/devices.h ****   uint32_t NDTR;
 179:src/sys/devices.h ****   volatile void* PAR;
 180:src/sys/devices.h ****   volatile void* M0AR;
 181:src/sys/devices.h ****   volatile void* M1AR;
 182:src/sys/devices.h ****   uint32_t FCR;
 183:src/sys/devices.h **** };
 184:src/sys/devices.h **** struct DMA_registers {
 185:src/sys/devices.h ****   uint32_t LISR;
 186:src/sys/devices.h ****   uint32_t HISR;
 187:src/sys/devices.h ****   uint32_t LIFCR;
 188:src/sys/devices.h ****   uint32_t HIFCR;
 189:src/sys/devices.h ****   struct DMA_Sx_registers S[8];
 190:src/sys/devices.h **** };
 191:src/sys/devices.h **** 
 192:src/sys/devices.h **** /* RM §10.3.7 */
 193:src/sys/devices.h **** struct EXTI_registers {
 194:src/sys/devices.h ****   uint32_t IMR;
 195:src/sys/devices.h ****   uint32_t EMR;
 196:src/sys/devices.h ****   uint32_t RTSR;
 197:src/sys/devices.h ****   uint32_t FTSR;
 198:src/sys/devices.h ****   uint32_t SWIER;
 199:src/sys/devices.h ****   uint32_t PR;
 200:src/sys/devices.h **** };
 201:src/sys/devices.h **** 
 202:src/sys/devices.h **** /* RM §11.8 */
 203:src/sys/devices.h **** struct FMC_registers {
 204:src/sys/devices.h ****   uint32_t BCR1;
 205:src/sys/devices.h ****   uint32_t BCR2;
 206:src/sys/devices.h ****   uint32_t BCR3;
 207:src/sys/devices.h ****   uint32_t BCR4;
 208:src/sys/devices.h ****   uint32_t BTR1;
 209:src/sys/devices.h ****   uint32_t BTR2;
 210:src/sys/devices.h ****   uint32_t BTR3;
 211:src/sys/devices.h ****   uint32_t BTR4;
 212:src/sys/devices.h ****   uint32_t BWTR1;
 213:src/sys/devices.h ****   uint32_t BWTR2;
 214:src/sys/devices.h ****   uint32_t BWTR3;
 215:src/sys/devices.h ****   uint32_t BWTR4;
 216:src/sys/devices.h ****   uint32_t PCR;
 217:src/sys/devices.h ****   uint32_t SR;
 218:src/sys/devices.h ****   uint32_t PMEM;
 219:src/sys/devices.h ****   uint32_t PATT;
 220:src/sys/devices.h ****   uint32_t ECCR;
 221:src/sys/devices.h ****   uint32_t SDCR1;
 222:src/sys/devices.h ****   uint32_t SDCR2;
 223:src/sys/devices.h ****   uint32_t SDTR1;
 224:src/sys/devices.h ****   uint32_t SDTR2;
 225:src/sys/devices.h ****   uint32_t SDCMR;
 226:src/sys/devices.h ****   uint32_t SDRTR;
 227:src/sys/devices.h ****   uint32_t SDSR;
 228:src/sys/devices.h **** };
 229:src/sys/devices.h **** 
 230:src/sys/devices.h **** /* RM §12.5.14 */
 231:src/sys/devices.h **** struct QUADSPI_registers {
 232:src/sys/devices.h ****   uint32_t CR;
 233:src/sys/devices.h ****   uint32_t DCR;
 234:src/sys/devices.h ****   uint32_t SR;
 235:src/sys/devices.h ****   uint32_t FCR;
 236:src/sys/devices.h ****   uint32_t DLR;
 237:src/sys/devices.h ****   uint32_t CCR;
 238:src/sys/devices.h ****   uint32_t AR;
 239:src/sys/devices.h ****   uint32_t ABR;
 240:src/sys/devices.h ****   uint32_t DR;
 241:src/sys/devices.h ****   uint32_t PSMKR;
 242:src/sys/devices.h ****   uint32_t PSMAR;
 243:src/sys/devices.h ****   uint32_t PIR;
 244:src/sys/devices.h ****   uint32_t LPTR;
 245:src/sys/devices.h **** };
 246:src/sys/devices.h **** 
 247:src/sys/devices.h **** /* RM §13.13.18 */
 248:src/sys/devices.h **** struct ADCx_registers {
 249:src/sys/devices.h ****   uint32_t SR;
 250:src/sys/devices.h ****   uint32_t CR1;
 251:src/sys/devices.h ****   uint32_t CR2;
 252:src/sys/devices.h ****   uint32_t SMPR1;
 253:src/sys/devices.h ****   uint32_t SMPR2;
 254:src/sys/devices.h ****   uint32_t JOFR1;
 255:src/sys/devices.h ****   uint32_t JOFR2;
 256:src/sys/devices.h ****   uint32_t JOFR3;
 257:src/sys/devices.h ****   uint32_t JOFR4;
 258:src/sys/devices.h ****   uint32_t HTR;
 259:src/sys/devices.h ****   uint32_t LTR;
 260:src/sys/devices.h ****   uint32_t SQR1;
 261:src/sys/devices.h ****   uint32_t SQR2;
 262:src/sys/devices.h ****   uint32_t SQR3;
 263:src/sys/devices.h ****   uint32_t JSQR;
 264:src/sys/devices.h ****   uint32_t JDR1;
 265:src/sys/devices.h ****   uint32_t JDR2;
 266:src/sys/devices.h ****   uint32_t JDR3;
 267:src/sys/devices.h ****   uint32_t JDR4;
 268:src/sys/devices.h ****   uint32_t DR;
 269:src/sys/devices.h **** };
 270:src/sys/devices.h **** 
 271:src/sys/devices.h **** struct ADC_common_registers {
 272:src/sys/devices.h ****   uint32_t CSR;
 273:src/sys/devices.h ****   uint32_t CCR;
 274:src/sys/devices.h ****   uint32_t CDR;
 275:src/sys/devices.h **** };
 276:src/sys/devices.h **** 
 277:src/sys/devices.h **** 
 278:src/sys/devices.h **** /* RM §14.5.15 */
 279:src/sys/devices.h **** struct DAC_registers {
 280:src/sys/devices.h ****   uint32_t CR;
 281:src/sys/devices.h ****   uint32_t SWTRIGR;
 282:src/sys/devices.h ****   uint32_t DHR12R1;
 283:src/sys/devices.h ****   uint32_t DHR12L1;
 284:src/sys/devices.h ****   uint32_t DHR8R1;
 285:src/sys/devices.h ****   uint32_t DHR12R2;
 286:src/sys/devices.h ****   uint32_t DHR12L2;
 287:src/sys/devices.h ****   uint32_t DHR8R2;
 288:src/sys/devices.h ****   uint32_t DHR12RD;
 289:src/sys/devices.h ****   uint32_t DHR12LD;
 290:src/sys/devices.h ****   uint32_t DHR8RD;
 291:src/sys/devices.h ****   uint32_t DOR1;
 292:src/sys/devices.h ****   uint32_t DOR2;
 293:src/sys/devices.h ****   uint32_t SR;
 294:src/sys/devices.h **** };
 295:src/sys/devices.h **** 
 296:src/sys/devices.h **** /* RM §15.8.12 */
 297:src/sys/devices.h **** struct DCMI_registers {
 298:src/sys/devices.h ****   uint32_t CR;
 299:src/sys/devices.h ****   uint32_t SR;
 300:src/sys/devices.h ****   uint32_t RIS;
 301:src/sys/devices.h ****   uint32_t IER;
 302:src/sys/devices.h ****   uint32_t MIS;
 303:src/sys/devices.h ****   uint32_t ICR;
 304:src/sys/devices.h ****   uint32_t ESCR;
 305:src/sys/devices.h ****   uint32_t ESUR;
 306:src/sys/devices.h ****   uint32_t CWSTRT;
 307:src/sys/devices.h ****   uint32_t CWSIZE;
 308:src/sys/devices.h ****   uint32_t DR;
 309:src/sys/devices.h **** };
 310:src/sys/devices.h **** 
 311:src/sys/devices.h **** /* RM §16.4.21 TIM1,8 */
 312:src/sys/devices.h **** /* RM §17.4.21 TIM2,3,4,5 */
 313:src/sys/devices.h **** /* RM §18.4.13 TIM9,12 */
 314:src/sys/devices.h **** /* RM §18.5.1  TIM10,11,13,14 */
 315:src/sys/devices.h **** /* RM §19.4.9  TIM6,7 */
 316:src/sys/devices.h **** struct TIMx_registers {
 317:src/sys/devices.h ****   uint32_t CR1;
 318:src/sys/devices.h ****   uint32_t CR2;
 319:src/sys/devices.h ****   uint32_t SMCR;
 320:src/sys/devices.h ****   uint32_t DIER;
 321:src/sys/devices.h ****   uint32_t SR;
 322:src/sys/devices.h ****   uint32_t EGR;
 323:src/sys/devices.h ****   uint32_t CCMR1;
 324:src/sys/devices.h ****   uint32_t CCMR2;
 325:src/sys/devices.h ****   uint32_t CCER;
 326:src/sys/devices.h ****   uint32_t CNT;
 327:src/sys/devices.h ****   uint32_t PSC;
 328:src/sys/devices.h ****   uint32_t ARR;
 329:src/sys/devices.h ****   uint32_t RCR;
 330:src/sys/devices.h ****   uint32_t CCR1;
 331:src/sys/devices.h ****   uint32_t CCR2;
 332:src/sys/devices.h ****   uint32_t CCR3;
 333:src/sys/devices.h ****   uint32_t CCR4;
 334:src/sys/devices.h ****   uint32_t BDTR;
 335:src/sys/devices.h ****   uint32_t DCR;
 336:src/sys/devices.h ****   uint32_t DMAR;
 337:src/sys/devices.h ****   uint32_t OR;
 338:src/sys/devices.h **** };
 339:src/sys/devices.h **** 
 340:src/sys/devices.h **** /* RM §20.4.5 */
 341:src/sys/devices.h **** struct IWDG_registers {
 342:src/sys/devices.h ****   uint32_t KR;
 343:src/sys/devices.h ****   uint32_t PR;
 344:src/sys/devices.h ****   uint32_t RLR;
 345:src/sys/devices.h ****   uint32_t SR;
 346:src/sys/devices.h **** };
 347:src/sys/devices.h **** 
 348:src/sys/devices.h **** /* RM §21.6.4 */
 349:src/sys/devices.h **** struct WWDG_registers {
 350:src/sys/devices.h ****   uint32_t CR;
 351:src/sys/devices.h ****   uint32_t CFR;
 352:src/sys/devices.h ****   uint32_t SR;
 353:src/sys/devices.h **** };
 354:src/sys/devices.h **** 
 355:src/sys/devices.h **** /* RM §22.6.21 */
 356:src/sys/devices.h **** struct RTC_registers {
 357:src/sys/devices.h ****   uint32_t TR;
 358:src/sys/devices.h ****   uint32_t DR;
 359:src/sys/devices.h ****   uint32_t CR;
 360:src/sys/devices.h ****   uint32_t ISR;
 361:src/sys/devices.h ****   uint32_t PRER;
 362:src/sys/devices.h ****   uint32_t WUTR;
 363:src/sys/devices.h ****   uint32_t CALIBR;
 364:src/sys/devices.h ****   uint32_t ALRMAR;
 365:src/sys/devices.h ****   uint32_t ALRMBR;
 366:src/sys/devices.h ****   uint32_t WPR;
 367:src/sys/devices.h ****   uint32_t SSR;
 368:src/sys/devices.h ****   uint32_t SHIFTR;
 369:src/sys/devices.h ****   uint32_t TSTR;
 370:src/sys/devices.h ****   uint32_t TSSSR;
 371:src/sys/devices.h ****   uint32_t CALR;
 372:src/sys/devices.h ****   uint32_t TAFCR;
 373:src/sys/devices.h ****   uint32_t ALRMASSR;
 374:src/sys/devices.h ****   uint32_t ALRMBSSR;
 375:src/sys/devices.h ****   uint32_t BKPR[20];
 376:src/sys/devices.h **** };
 377:src/sys/devices.h **** 
 378:src/sys/devices.h **** /* RM §23.7.12 */
 379:src/sys/devices.h **** struct FMPI2C_registers {
 380:src/sys/devices.h ****   uint32_t CR1;
 381:src/sys/devices.h ****   uint32_t CR2;
 382:src/sys/devices.h ****   uint32_t OAR1;
 383:src/sys/devices.h ****   uint32_t OAR2;
 384:src/sys/devices.h ****   uint32_t TIMINGR;
 385:src/sys/devices.h ****   uint32_t TIMEOUTR;
 386:src/sys/devices.h ****   uint32_t ISR;
 387:src/sys/devices.h ****   uint32_t ICR;
 388:src/sys/devices.h ****   uint32_t PECR;
 389:src/sys/devices.h ****   uint32_t RXDR;
 390:src/sys/devices.h ****   uint32_t TXDR;
 391:src/sys/devices.h **** };
 392:src/sys/devices.h **** 
 393:src/sys/devices.h **** /* RM §24.6.14 */
 394:src/sys/devices.h **** struct I2C_registers {
 395:src/sys/devices.h ****   uint32_t CR1;
 396:src/sys/devices.h ****   uint32_t CR2;
 397:src/sys/devices.h ****   uint32_t OAR1;
 398:src/sys/devices.h ****   uint32_t OAR2;
 399:src/sys/devices.h ****   uint32_t DR;
 400:src/sys/devices.h ****   uint32_t SR1;
 401:src/sys/devices.h ****   uint32_t SR2;
 402:src/sys/devices.h ****   uint32_t CCR;
 403:src/sys/devices.h ****   uint32_t TRISE;
 404:src/sys/devices.h ****   uint32_t FLTR;
 405:src/sys/devices.h **** };
 406:src/sys/devices.h **** 
 407:src/sys/devices.h **** /* RM §25.6.8 */
 408:src/sys/devices.h **** struct USART_registers {
 409:src/sys/devices.h ****   uint32_t SR;
 410:src/sys/devices.h ****   uint32_t DR;
 411:src/sys/devices.h ****   uint32_t BRR;
 412:src/sys/devices.h ****   uint32_t CR1;
 413:src/sys/devices.h ****   uint32_t CR2;
 414:src/sys/devices.h ****   uint32_t CR3;
 415:src/sys/devices.h ****   uint32_t GTPR;
 416:src/sys/devices.h **** };
 417:src/sys/devices.h **** 
 418:src/sys/devices.h **** /* RM §26.7.10 */
 419:src/sys/devices.h **** struct SPI_I2S_registers {
 420:src/sys/devices.h ****   uint32_t CR1;
 421:src/sys/devices.h ****   uint32_t CR2;
 422:src/sys/devices.h ****   uint32_t SR;
 423:src/sys/devices.h ****   uint32_t DR;
 424:src/sys/devices.h ****   uint32_t CRCPR;
 425:src/sys/devices.h ****   uint32_t RXCRCR;
 426:src/sys/devices.h ****   uint32_t TXCRCR;
 427:src/sys/devices.h ****   uint32_t I2SCFGR;
 428:src/sys/devices.h ****   uint32_t I2SPR;
 429:src/sys/devices.h **** };
 430:src/sys/devices.h **** 
 431:src/sys/devices.h **** /* RM §27.5.10 */
 432:src/sys/devices.h **** struct SPDIFRX_registers {
 433:src/sys/devices.h ****   uint32_t CR;
 434:src/sys/devices.h ****   uint32_t IMR;
 435:src/sys/devices.h ****   uint32_t SR;
 436:src/sys/devices.h ****   uint32_t IFCR;
 437:src/sys/devices.h ****   uint32_t DR;
 438:src/sys/devices.h ****   uint32_t CSR;
 439:src/sys/devices.h ****   uint32_t DIR;
 440:src/sys/devices.h **** };
 441:src/sys/devices.h **** 
 442:src/sys/devices.h **** /* RM §28.5.10 */
 443:src/sys/devices.h **** struct SAI_x_registers {
 444:src/sys/devices.h ****   uint32_t CR1;
 445:src/sys/devices.h ****   uint32_t CR2;
 446:src/sys/devices.h ****   uint32_t FRCR;
 447:src/sys/devices.h ****   uint32_t SLOTR;
 448:src/sys/devices.h ****   uint32_t IM;
 449:src/sys/devices.h ****   uint32_t SR;
 450:src/sys/devices.h ****   uint32_t CLRFR;
 451:src/sys/devices.h ****   uint32_t DR;
 452:src/sys/devices.h **** };
 453:src/sys/devices.h **** 
 454:src/sys/devices.h **** struct SAI_registers {
 455:src/sys/devices.h ****   uint32_t GCR;
 456:src/sys/devices.h ****   struct SAI_x_registers A;
 457:src/sys/devices.h ****   struct SAI_x_registers B;
 458:src/sys/devices.h **** };
 459:src/sys/devices.h **** 
 460:src/sys/devices.h **** /* RM §29.8.16 */
 461:src/sys/devices.h **** struct SDIO_registers {
 462:src/sys/devices.h ****   uint32_t POWER;
 463:src/sys/devices.h ****   uint32_t CLKCR;
 464:src/sys/devices.h ****   uint32_t CMD;
 465:src/sys/devices.h ****   uint32_t RESPCMD;
 466:src/sys/devices.h ****   uint32_t RESP1;
 467:src/sys/devices.h ****   uint32_t RESP2;
 468:src/sys/devices.h ****   uint32_t RESP3;
 469:src/sys/devices.h ****   uint32_t RESP4;
 470:src/sys/devices.h ****   uint32_t DTIMER;
 471:src/sys/devices.h ****   uint32_t DLEN;
 472:src/sys/devices.h ****   uint32_t DCTRL;
 473:src/sys/devices.h ****   uint32_t DCOUNT;
 474:src/sys/devices.h ****   uint32_t STA;
 475:src/sys/devices.h ****   uint32_t ICR;
 476:src/sys/devices.h ****   uint32_t MASK;
 477:src/sys/devices.h ****   __reserved(0x40);
 478:src/sys/devices.h ****   __reserved(0x44);
 479:src/sys/devices.h ****   uint32_t FIFOCNT;
 480:src/sys/devices.h ****   __reserved_interval(0x4c,0x80);
 481:src/sys/devices.h ****   uint32_t FIFO[32];
 482:src/sys/devices.h **** };
 483:src/sys/devices.h ****   
 484:src/sys/devices.h **** /* RM §30.9.5 */
 485:src/sys/devices.h **** struct bxCAN_TxRx_registers {
 486:src/sys/devices.h ****   uint32_t IR;
 487:src/sys/devices.h ****   uint32_t DTR;
 488:src/sys/devices.h ****   uint32_t DLR;
 489:src/sys/devices.h ****   uint32_t DHR;
 490:src/sys/devices.h **** };
 491:src/sys/devices.h **** 
 492:src/sys/devices.h **** struct bxCAN_registers {
 493:src/sys/devices.h ****   uint32_t MCR;
 494:src/sys/devices.h ****   uint32_t MSR;
 495:src/sys/devices.h ****   uint32_t TSR;
 496:src/sys/devices.h ****   uint32_t RF0R;
 497:src/sys/devices.h ****   uint32_t RF1R;
 498:src/sys/devices.h ****   uint32_t IER;
 499:src/sys/devices.h ****   uint32_t ESR;
 500:src/sys/devices.h ****   uint32_t BTR;
 501:src/sys/devices.h ****   __reserved_interval(0x20,0x180);
 502:src/sys/devices.h ****   struct bxCAN_TxRx_registers Tx[3];
 503:src/sys/devices.h ****   struct bxCAN_TxRx_registers Rx[2];
 504:src/sys/devices.h ****   __reserved_interval(0x1d0,0x200);
 505:src/sys/devices.h ****   uint32_t FMR;
 506:src/sys/devices.h ****   uint32_t FM1R;
 507:src/sys/devices.h ****   __reserved(0x208);
 508:src/sys/devices.h ****   uint32_t FS1R;
 509:src/sys/devices.h ****   __reserved(0x210);
 510:src/sys/devices.h ****   uint32_t FFA1R;
 511:src/sys/devices.h ****   __reserved(0x218);
 512:src/sys/devices.h ****   uint32_t FA1R;
 513:src/sys/devices.h ****   __reserved_interval(0x220,0x240);
 514:src/sys/devices.h ****   struct {uint32_t R1; uint32_t R2;} F[28];
 515:src/sys/devices.h **** };
 516:src/sys/devices.h **** 
 517:src/sys/devices.h **** /* RM §32.7.7 */
 518:src/sys/devices.h **** struct OTG_registers {
 519:src/sys/devices.h ****    /* TODO */
 520:src/sys/devices.h **** };
 521:src/sys/devices.h **** 
 522:src/sys/devices.h **** /* RM §32.7.7 */
 523:src/sys/devices.h **** struct HDMI_CEC_registers {
 524:src/sys/devices.h ****   uint32_t CR;
 525:src/sys/devices.h ****   uint32_t CFGR;
 526:src/sys/devices.h ****   uint32_t TXDR;
 527:src/sys/devices.h ****   uint32_t RXDR;
 528:src/sys/devices.h ****   uint32_t ISR;
 529:src/sys/devices.h ****   uint32_t IER;
 530:src/sys/devices.h **** };
 531:src/sys/devices.h **** 
 532:src/sys/devices.h **** /* RM §33.18 */
 533:src/sys/devices.h **** struct DBGMCU_registers {
 534:src/sys/devices.h ****   uint32_t IDCODE;
 535:src/sys/devices.h ****   uint32_t CR;
 536:src/sys/devices.h ****   uint32_t APB1FZ;
 537:src/sys/devices.h ****   uint32_t APB2FZ;
 538:src/sys/devices.h **** };
 539:src/sys/devices.h **** 
 540:src/sys/devices.h **** /* Constant values */
 541:src/sys/devices.h **** 
 542:src/sys/devices.h **** extern const uint16_t Package_data;
 543:src/sys/devices.h **** extern const uint16_t TS_CAL2;
 544:src/sys/devices.h **** extern const uint16_t TS_CAL1;
 545:src/sys/devices.h **** extern const uint16_t VREFIN_CAL;
 546:src/sys/devices.h **** extern const uint16_t Flash_size;
 547:src/sys/devices.h **** extern const uint32_t U_ID[3];
 548:src/sys/devices.h **** 
 549:src/sys/devices.h **** /* Core Devices base addresses */
 550:src/sys/devices.h **** 
 551:src/sys/devices.h **** extern volatile struct DBGMCU_registers DBG;
 552:src/sys/devices.h **** 
 553:src/sys/devices.h **** extern volatile struct FPU_registers FPU;
 554:src/sys/devices.h **** extern volatile uint32_t NVIC_STIR;
 555:src/sys/devices.h **** extern volatile struct MPU_registers MPU;
 556:src/sys/devices.h **** extern volatile uint32_t FPU_CPACR;
 557:src/sys/devices.h **** extern volatile struct SCB_registers SCB;
 558:src/sys/devices.h **** extern volatile struct NVIC_registers NVIC;
 559:src/sys/devices.h **** extern volatile struct STK_registers SysTick;
 560:src/sys/devices.h **** 
 561:src/sys/devices.h **** /* Devices base addresses */
 562:src/sys/devices.h **** 
 563:src/sys/devices.h **** extern volatile struct QUADSPI_registers QUADSPI;
 564:src/sys/devices.h **** 
 565:src/sys/devices.h **** extern volatile struct DCMI_registers DCMI;
 566:src/sys/devices.h **** extern volatile struct OTG_registers USB_OTG_FS;
 567:src/sys/devices.h **** 
 568:src/sys/devices.h **** extern volatile struct OTG_registers USB_OTG_HS;
 569:src/sys/devices.h **** extern volatile struct DMA_registers DMA2;
 570:src/sys/devices.h **** extern volatile struct DMA_registers DMA1;
 571:src/sys/devices.h **** extern uint32_t BKPSRAM[1024];
 572:src/sys/devices.h **** extern volatile struct FLASH_registers FLASH;
 573:src/sys/devices.h **** extern volatile struct RCC_registers RCC;
 574:src/sys/devices.h **** extern volatile struct CRC_registers CRC;
 575:src/sys/devices.h **** extern volatile struct GPIO_registers GPIOH;
 576:src/sys/devices.h **** extern volatile struct GPIO_registers GPIOG;
 577:src/sys/devices.h **** extern volatile struct GPIO_registers GPIOF;
 578:src/sys/devices.h **** extern volatile struct GPIO_registers GPIOE;
 579:src/sys/devices.h **** extern volatile struct GPIO_registers GPIOD;
 580:src/sys/devices.h **** extern volatile struct GPIO_registers GPIOC;
 581:src/sys/devices.h **** extern volatile struct GPIO_registers GPIOB;
 582:src/sys/devices.h **** extern volatile struct GPIO_registers GPIOA;
 583:src/sys/devices.h **** 
 584:src/sys/devices.h **** extern volatile struct SAI_registers SAI2;
 585:src/sys/devices.h **** extern volatile struct SAI_registers SAI1;
 586:src/sys/devices.h **** 
 587:src/sys/devices.h **** extern volatile struct TIMx_registers TIM11;
 588:src/sys/devices.h **** extern volatile struct TIMx_registers TIM10;
 589:src/sys/devices.h **** extern volatile struct TIMx_registers TIM9;
 590:src/sys/devices.h **** extern volatile struct EXTI_registers EXTI;
 591:src/sys/devices.h **** extern volatile struct SYSCFG_registers SYSCFG;
 592:src/sys/devices.h **** extern volatile struct SPI_registers SPI4;
 593:src/sys/devices.h **** extern volatile struct SPI_registers SPI1;
 594:src/sys/devices.h **** extern volatile struct SDIO_registers SDMMC;
 595:src/sys/devices.h **** extern volatile struct ADCx_registers ADC1;
 596:src/sys/devices.h **** extern volatile struct ADCx_registers ADC2;
 597:src/sys/devices.h **** extern volatile struct ADCx_registers ADC3;
 598:src/sys/devices.h **** extern volatile struct ADC_common_registers ADC_common;
 599:src/sys/devices.h **** extern volatile struct USART_registers USART6;
 600:src/sys/devices.h **** extern volatile struct USART_registers USART1;
 601:src/sys/devices.h **** extern volatile struct TIMx_registers TIM8;
 602:src/sys/devices.h **** extern volatile struct TIMx_registers TIM1;
 603:src/sys/devices.h **** 
 604:src/sys/devices.h **** extern volatile struct DAC_registers DAC;
 605:src/sys/devices.h **** extern volatile struct PWR_registers PWR;
 606:src/sys/devices.h **** extern volatile struct HDMI_CEC_registers HDMI_CEC;
 607:src/sys/devices.h **** extern volatile struct bxCAN_registers CAN2;
 608:src/sys/devices.h **** extern volatile struct bxCAN_registers CAN1;
 609:src/sys/devices.h **** extern volatile struct FMPI2C_registers FMPI2C1;
 610:src/sys/devices.h **** extern volatile struct I2C_registers I2C3;
 611:src/sys/devices.h **** extern volatile struct I2C_registers I2C2;
 612:src/sys/devices.h **** extern volatile struct I2C_registers I2C1;
 613:src/sys/devices.h **** extern volatile struct USART_registers UART5;
 614:src/sys/devices.h **** extern volatile struct USART_registers UART4;
 615:src/sys/devices.h **** extern volatile struct USART_registers USART3;
 616:src/sys/devices.h **** extern volatile struct USART_registers USART2;
 617:src/sys/devices.h **** extern volatile struct SPDIF_RX_registers SPDIF_RX;
 618:src/sys/devices.h **** extern volatile struct SPI_I2S_registers SPI3_I2S3;
 619:src/sys/devices.h **** extern volatile struct SPI_I2S_registers SPI2_I2S2;
 620:src/sys/devices.h **** extern volatile struct IWDG_registers IWDG;
 621:src/sys/devices.h **** extern volatile struct WWDG_registers WWDG;
 622:src/sys/devices.h **** extern volatile struct RTC_registers RTC_BKP;
 623:src/sys/devices.h **** extern volatile struct TIMx_registers TIM14;
 624:src/sys/devices.h **** extern volatile struct TIMx_registers TIM13;
 625:src/sys/devices.h **** extern volatile struct TIMx_registers TIM12;
 626:src/sys/devices.h **** extern volatile struct TIMx_registers TIM7;
 627:src/sys/devices.h **** extern volatile struct TIMx_registers TIM6;
 628:src/sys/devices.h **** extern volatile struct TIMx_registers TIM5;
 629:src/sys/devices.h **** extern volatile struct TIMx_registers TIM4;
 630:src/sys/devices.h **** extern volatile struct TIMx_registers TIM3;
 631:src/sys/devices.h **** extern volatile struct TIMx_registers TIM2;
 632:src/sys/devices.h **** 
 633:src/sys/devices.h **** #define __set_bit(_w,_i) ((_w)|=(1<<(_i)))
 634:src/sys/devices.h **** #define __clr_bit(_w,_i) ((_w) &= ~(1<<(_i)))
 635:src/sys/devices.h **** #define __really_inline__ static inline __attribute__((always_inline)) 
 636:src/sys/devices.h **** #define __sync __DSB
 637:src/sys/devices.h **** 
 638:src/sys/devices.h **** #define __declare_device_control(name,bus,bus_bit) \
 639:src/sys/devices.h ****   void __really_inline__ enable_##name() { \
 640:src/sys/devices.h ****     __set_bit(RCC.bus##ENR,bus_bit); __sync(); } \
 641:src/sys/devices.h ****   void __really_inline__ low_power_enable_##name() { \
 642:src/sys/devices.h ****     __set_bit(RCC.bus##LPENR,bus_bit); __sync(); } \
 643:src/sys/devices.h ****   void __really_inline__ disable_##name() { \
 644:src/sys/devices.h ****     __clr_bit(RCC.bus##ENR,bus_bit); __sync(); } \
 645:src/sys/devices.h ****   void __really_inline__ low_power_disable_## name() { \
 646:src/sys/devices.h ****     __clr_bit(RCC.bus##LPENR,bus_bit); __sync(); } \
 647:src/sys/devices.h ****   void __really_inline__ reset_##name() { \
 648:src/sys/devices.h ****     __set_bit(RCC.bus##RSTR,bus_bit); __sync(); } \
 649:src/sys/devices.h **** \
 650:src/sys/devices.h **** 
 651:src/sys/devices.h **** /* __declare_device_control(FMC,AHB3,0) FMC not available in LQFP64 package */
 652:src/sys/devices.h **** __declare_device_control(QUADSPI,AHB3,1)
 653:src/sys/devices.h **** 
 654:src/sys/devices.h **** __declare_device_control(DCMI,AHB2,0)
 655:src/sys/devices.h **** __declare_device_control(USB_OTG_FS,AHB2,7)
 656:src/sys/devices.h **** 
 657:src/sys/devices.h **** __declare_device_control(USB_OTG_HS,AHB1,29)
 658:src/sys/devices.h **** __declare_device_control(DMA2,AHB1,22)
 659:src/sys/devices.h **** __declare_device_control(DMA1,AHB1,21)
 660:src/sys/devices.h **** __declare_device_control(CRC,AHB1,12)
 661:src/sys/devices.h **** __declare_device_control(GPIOH,AHB1,7)
 662:src/sys/devices.h **** __declare_device_control(GPIOG,AHB1,6)
 663:src/sys/devices.h **** __declare_device_control(GPIOF,AHB1,5)
 664:src/sys/devices.h **** __declare_device_control(GPIOE,AHB1,4)
 665:src/sys/devices.h **** __declare_device_control(GPIOD,AHB1,3)
 666:src/sys/devices.h **** __declare_device_control(GPIOC,AHB1,2)
 667:src/sys/devices.h **** __declare_device_control(GPIOB,AHB1,1)
 668:src/sys/devices.h **** __declare_device_control(GPIOA,AHB1,0)
 364              		.loc 3 668 1 view .LVU99
 365              	.LBB19:
 366              		.loc 3 668 1 view .LVU100
 367 010c 114B     		ldr	r3, .L38
 368 010e 1A6B     		ldr	r2, [r3, #48]
 369 0110 42F00102 		orr	r2, r2, #1
 370 0114 1A63     		str	r2, [r3, #48]
 371              		.loc 3 668 1 view .LVU101
 372              	.LBB20:
 373              	.LBI20:
 426:src/sys/cmsis_gcc.h **** {
 374              		.loc 2 426 53 view .LVU102
 375              	.LBB21:
 376              		.loc 2 428 3 view .LVU103
 377              		.syntax unified
 378              	@ 428 "src/sys/cmsis_gcc.h" 1
 379 0116 BFF34F8F 		dsb 0xF
 380              	@ 0 "" 2
 381              		.thumb
 382              		.syntax unified
 383              	.LBE21:
 384              	.LBE20:
 385              	.LBE19:
 386              	.LBE18:
  57:src/sys/clock.c ****   enable_GPIOC();
 387              		.loc 1 57 3 view .LVU104
 388              	.LBB22:
 389              	.LBI22:
 666:src/sys/devices.h **** __declare_device_control(GPIOB,AHB1,1)
 390              		.loc 3 666 1 view .LVU105
 391              	.LBB23:
 666:src/sys/devices.h **** __declare_device_control(GPIOB,AHB1,1)
 392              		.loc 3 666 1 view .LVU106
 393 011a 1A6B     		ldr	r2, [r3, #48]
 394 011c 42F00402 		orr	r2, r2, #4
 395 0120 1A63     		str	r2, [r3, #48]
 666:src/sys/devices.h **** __declare_device_control(GPIOB,AHB1,1)
 396              		.loc 3 666 1 view .LVU107
 397              	.LBB24:
 398              	.LBI24:
 426:src/sys/cmsis_gcc.h **** {
 399              		.loc 2 426 53 view .LVU108
 400              	.LBB25:
 401              		.loc 2 428 3 view .LVU109
 402              		.syntax unified
 403              	@ 428 "src/sys/cmsis_gcc.h" 1
 404 0122 BFF34F8F 		dsb 0xF
 405              	@ 0 "" 2
 406              		.thumb
 407              		.syntax unified
 408              	.LBE25:
 409              	.LBE24:
 410              	.LBE23:
 411              	.LBE22:
  58:src/sys/clock.c **** 
  59:src/sys/clock.c ****   /* setup PA8,PC9 alternate function : MCO1 */
  60:src/sys/clock.c ****   /* AFRH8=0; */
  61:src/sys/clock.c ****   GPIOA.AFRH &= ~0x0000000f;
 412              		.loc 1 61 3 view .LVU110
 413              		.loc 1 61 8 is_stmt 0 view .LVU111
 414 0126 0C49     		ldr	r1, .L38+4
  62:src/sys/clock.c ****   GPIOC.AFRH &= ~0x000000f0;
 415              		.loc 1 62 8 view .LVU112
 416 0128 0C4A     		ldr	r2, .L38+8
  61:src/sys/clock.c ****   GPIOC.AFRH &= ~0x000000f0;
 417              		.loc 1 61 8 view .LVU113
 418 012a 4B6A     		ldr	r3, [r1, #36]
  61:src/sys/clock.c ****   GPIOC.AFRH &= ~0x000000f0;
 419              		.loc 1 61 14 view .LVU114
 420 012c 23F00F03 		bic	r3, r3, #15
 421 0130 4B62     		str	r3, [r1, #36]
 422              		.loc 1 62 3 is_stmt 1 view .LVU115
 423              		.loc 1 62 8 is_stmt 0 view .LVU116
 424 0132 536A     		ldr	r3, [r2, #36]
 425              		.loc 1 62 14 view .LVU117
 426 0134 23F0F003 		bic	r3, r3, #240
 427 0138 5362     		str	r3, [r2, #36]
  63:src/sys/clock.c **** 
  64:src/sys/clock.c ****   /* switch PA8,PC9 to alternate function mode */
  65:src/sys/clock.c ****   /* MODERx=2; */
  66:src/sys/clock.c ****   GPIOA.MODER =
 428              		.loc 1 66 3 is_stmt 1 view .LVU118
  67:src/sys/clock.c ****     (GPIOA.MODER & ~(3<<16)) | (2<<16);
 429              		.loc 1 67 11 is_stmt 0 view .LVU119
 430 013a 0B68     		ldr	r3, [r1]
 431              		.loc 1 67 18 view .LVU120
 432 013c 23F44033 		bic	r3, r3, #196608
 433              		.loc 1 67 30 view .LVU121
 434 0140 43F40033 		orr	r3, r3, #131072
  66:src/sys/clock.c ****     (GPIOA.MODER & ~(3<<16)) | (2<<16);
 435              		.loc 1 66 15 view .LVU122
 436 0144 0B60     		str	r3, [r1]
  68:src/sys/clock.c ****   GPIOC.MODER =
 437              		.loc 1 68 3 is_stmt 1 view .LVU123
  69:src/sys/clock.c ****     (GPIOC.MODER & ~(3<<18)) | (2<<18);
 438              		.loc 1 69 11 is_stmt 0 view .LVU124
 439 0146 1368     		ldr	r3, [r2]
 440              		.loc 1 69 18 view .LVU125
 441 0148 23F44023 		bic	r3, r3, #786432
 442              		.loc 1 69 30 view .LVU126
 443 014c 43F40023 		orr	r3, r3, #524288
  68:src/sys/clock.c ****   GPIOC.MODER =
 444              		.loc 1 68 15 view .LVU127
 445 0150 1360     		str	r3, [r2]
  70:src/sys/clock.c **** }
 446              		.loc 1 70 1 view .LVU128
 447 0152 7047     		bx	lr
 448              	.L39:
 449              		.align	2
 450              	.L38:
 451 0154 00000000 		.word	RCC
 452 0158 00000000 		.word	GPIOA
 453 015c 00000000 		.word	GPIOC
 454              		.cfi_endproc
 455              	.LFE402:
 456              		.size	enable_MCO_GPIO, .-enable_MCO_GPIO
 457              		.align	1
 458              		.global	get_PLL_PCLK
 459              		.syntax unified
 460              		.thumb
 461              		.thumb_func
 462              		.type	get_PLL_PCLK, %function
 463              	get_PLL_PCLK:
 464              	.LFB403:
  71:src/sys/clock.c **** 
  72:src/sys/clock.c **** uint32_t get_PLL_PCLK() {
 465              		.loc 1 72 25 is_stmt 1 view -0
 466              		.cfi_startproc
 467              		@ args = 0, pretend = 0, frame = 0
 468              		@ frame_needed = 0, uses_anonymous_args = 0
 469              		@ link register save eliminated.
  73:src/sys/clock.c ****   uint32_t pllcfgr=RCC.PLLCFGR;
 470              		.loc 1 73 3 view .LVU130
 471              		.loc 1 73 12 is_stmt 0 view .LVU131
 472 0160 0A4B     		ldr	r3, .L43
 473 0162 5B68     		ldr	r3, [r3, #4]
 474              	.LVL24:
  74:src/sys/clock.c ****   uint32_t
 475              		.loc 1 74 3 is_stmt 1 view .LVU132
  75:src/sys/clock.c ****     M=(pllcfgr>>0)&0x3f,
  76:src/sys/clock.c ****     N=(pllcfgr>>6)&0x1ff,
  77:src/sys/clock.c ****     P=((pllcfgr>>16)&0x3)*2+2;
  78:src/sys/clock.c ****   PLLSRC SRC=(pllcfgr>>22)&0x1;
 476              		.loc 1 78 3 view .LVU133
  79:src/sys/clock.c ****   if (SRC==PLLSRC_HSI) {
 477              		.loc 1 79 3 view .LVU134
 478              		.loc 1 79 6 is_stmt 0 view .LVU135
 479 0164 5A02     		lsls	r2, r3, #9
 480 0166 0ED4     		bmi	.L42
  80:src/sys/clock.c ****     return (HSI_FREQ*MHz/M*N/P);
 481              		.loc 1 80 5 is_stmt 1 view .LVU136
  75:src/sys/clock.c ****     M=(pllcfgr>>0)&0x3f,
 482              		.loc 1 75 5 is_stmt 0 view .LVU137
 483 0168 03F03F02 		and	r2, r3, #63
 484              	.LVL25:
 485              		.loc 1 80 25 view .LVU138
 486 016c 0848     		ldr	r0, .L43+4
 487 016e B0FBF2F0 		udiv	r0, r0, r2
  76:src/sys/clock.c ****     P=((pllcfgr>>16)&0x3)*2+2;
 488              		.loc 1 76 5 view .LVU139
 489 0172 C3F38812 		ubfx	r2, r3, #6, #9
 490              	.LVL26:
  77:src/sys/clock.c ****   PLLSRC SRC=(pllcfgr>>22)&0x1;
 491              		.loc 1 77 21 view .LVU140
 492 0176 C3F30143 		ubfx	r3, r3, #16, #2
 493              	.LVL27:
  77:src/sys/clock.c ****   PLLSRC SRC=(pllcfgr>>22)&0x1;
 494              		.loc 1 77 28 view .LVU141
 495 017a 0133     		adds	r3, r3, #1
 496              		.loc 1 80 27 view .LVU142
 497 017c 5043     		muls	r0, r2, r0
  77:src/sys/clock.c ****   PLLSRC SRC=(pllcfgr>>22)&0x1;
 498              		.loc 1 77 5 view .LVU143
 499 017e 5B00     		lsls	r3, r3, #1
 500              		.loc 1 80 29 view .LVU144
 501 0180 B0FBF3F0 		udiv	r0, r0, r3
 502 0184 7047     		bx	lr
 503              	.LVL28:
 504              	.L42:
  81:src/sys/clock.c ****   } else {
  82:src/sys/clock.c ****     return (HSE_FREQ*MHz/M*N/P);
 505              		.loc 1 82 29 view .LVU145
 506 0186 0020     		movs	r0, #0
  83:src/sys/clock.c ****   }
  84:src/sys/clock.c **** }
 507              		.loc 1 84 1 view .LVU146
 508 0188 7047     		bx	lr
 509              	.L44:
 510 018a 00BF     		.align	2
 511              	.L43:
 512 018c 00000000 		.word	RCC
 513 0190 0024F400 		.word	16000000
 514              		.cfi_endproc
 515              	.LFE403:
 516              		.size	get_PLL_PCLK, .-get_PLL_PCLK
 517              		.align	1
 518              		.global	get_PLL_RCLK
 519              		.syntax unified
 520              		.thumb
 521              		.thumb_func
 522              		.type	get_PLL_RCLK, %function
 523              	get_PLL_RCLK:
 524              	.LFB404:
  85:src/sys/clock.c **** 
  86:src/sys/clock.c **** uint32_t get_PLL_RCLK() {
 525              		.loc 1 86 25 is_stmt 1 view -0
 526              		.cfi_startproc
 527              		@ args = 0, pretend = 0, frame = 0
 528              		@ frame_needed = 0, uses_anonymous_args = 0
 529              		@ link register save eliminated.
  87:src/sys/clock.c ****   uint32_t pllcfgr=RCC.PLLCFGR;
 530              		.loc 1 87 3 view .LVU148
 531              		.loc 1 87 12 is_stmt 0 view .LVU149
 532 0194 094B     		ldr	r3, .L48
 533 0196 5B68     		ldr	r3, [r3, #4]
 534              	.LVL29:
  88:src/sys/clock.c ****   uint32_t
 535              		.loc 1 88 3 is_stmt 1 view .LVU150
  89:src/sys/clock.c ****     M=(pllcfgr>>0)&0x3f,
  90:src/sys/clock.c ****     N=(pllcfgr>>6)&0x1ff,
  91:src/sys/clock.c ****     R=(pllcfgr>>28)&0x7;
  92:src/sys/clock.c ****   PLLSRC SRC=(pllcfgr>>22)&0x1;
 536              		.loc 1 92 3 view .LVU151
  93:src/sys/clock.c ****   if (SRC==PLLSRC_HSI) {
 537              		.loc 1 93 3 view .LVU152
 538              		.loc 1 93 6 is_stmt 0 view .LVU153
 539 0198 5A02     		lsls	r2, r3, #9
  94:src/sys/clock.c ****     return (HSI_FREQ*MHz/M*N/R);
 540              		.loc 1 94 5 is_stmt 1 view .LVU154
 541              		.loc 1 94 25 is_stmt 0 view .LVU155
 542 019a 5FBF     		itttt	pl
 543 019c 0848     		ldrpl	r0, .L48+4
  89:src/sys/clock.c ****     M=(pllcfgr>>0)&0x3f,
 544              		.loc 1 89 5 view .LVU156
 545 019e 03F03F02 		andpl	r2, r3, #63
 546              		.loc 1 94 25 view .LVU157
 547 01a2 B0FBF2F0 		udivpl	r0, r0, r2
  90:src/sys/clock.c ****     R=(pllcfgr>>28)&0x7;
 548              		.loc 1 90 5 view .LVU158
 549 01a6 C3F38812 		ubfxpl	r2, r3, #6, #9
 550              		.loc 1 94 27 view .LVU159
 551 01aa 5DBF     		ittte	pl
 552 01ac 5043     		mulpl	r0, r2, r0
  91:src/sys/clock.c ****   PLLSRC SRC=(pllcfgr>>22)&0x1;
 553              		.loc 1 91 5 view .LVU160
 554 01ae C3F30273 		ubfxpl	r3, r3, #28, #3
 555              	.LVL30:
 556              		.loc 1 94 29 view .LVU161
 557 01b2 B0FBF3F0 		udivpl	r0, r0, r3
  95:src/sys/clock.c ****   } else {
  96:src/sys/clock.c ****     return (HSE_FREQ*MHz/M*N/R);
 558              		.loc 1 96 29 view .LVU162
 559 01b6 0020     		movmi	r0, #0
  97:src/sys/clock.c ****   }
  98:src/sys/clock.c **** }
 560              		.loc 1 98 1 view .LVU163
 561 01b8 7047     		bx	lr
 562              	.L49:
 563 01ba 00BF     		.align	2
 564              	.L48:
 565 01bc 00000000 		.word	RCC
 566 01c0 0024F400 		.word	16000000
 567              		.cfi_endproc
 568              	.LFE404:
 569              		.size	get_PLL_RCLK, .-get_PLL_RCLK
 570              		.align	1
 571              		.global	get_SYSCLK
 572              		.syntax unified
 573              		.thumb
 574              		.thumb_func
 575              		.type	get_SYSCLK, %function
 576              	get_SYSCLK:
 577              	.LFB405:
  99:src/sys/clock.c **** 
 100:src/sys/clock.c **** uint32_t get_SYSCLK() {
 578              		.loc 1 100 23 is_stmt 1 view -0
 579              		.cfi_startproc
 580              		@ args = 0, pretend = 0, frame = 0
 581              		@ frame_needed = 0, uses_anonymous_args = 0
 582              		@ link register save eliminated.
 101:src/sys/clock.c ****   SW SWS=(RCC.CFGR>>2)&0x3;
 583              		.loc 1 101 3 view .LVU165
 584              		.loc 1 101 14 is_stmt 0 view .LVU166
 585 01c4 084B     		ldr	r3, .L57
 586 01c6 9B68     		ldr	r3, [r3, #8]
 587              		.loc 1 101 6 view .LVU167
 588 01c8 C3F38103 		ubfx	r3, r3, #2, #2
 589              	.LVL31:
 102:src/sys/clock.c ****   switch (SWS) {
 590              		.loc 1 102 3 is_stmt 1 view .LVU168
 591 01cc 022B     		cmp	r3, #2
 592 01ce 06D0     		beq	.L51
 593 01d0 032B     		cmp	r3, #3
 594 01d2 06D0     		beq	.L52
 103:src/sys/clock.c ****   case SW_HSI:
 104:src/sys/clock.c ****     return (HSI_FREQ*MHz);
 595              		.loc 1 104 12 is_stmt 0 view .LVU169
 596 01d4 012B     		cmp	r3, #1
 597 01d6 0548     		ldr	r0, .L57+4
 598 01d8 08BF     		it	eq
 599 01da 0020     		moveq	r0, #0
 105:src/sys/clock.c ****   case SW_HSE:
 106:src/sys/clock.c ****     return (HSE_FREQ*MHz);
 107:src/sys/clock.c ****   case SW_PLL_P:
 108:src/sys/clock.c ****     return get_PLL_PCLK();
 109:src/sys/clock.c ****   case SW_PLL_R:
 110:src/sys/clock.c ****     return get_PLL_RCLK();
 111:src/sys/clock.c ****   }
 112:src/sys/clock.c ****   return 0;
 113:src/sys/clock.c **** }
 600              		.loc 1 113 1 view .LVU170
 601 01dc 7047     		bx	lr
 602              	.L51:
 108:src/sys/clock.c ****   case SW_PLL_R:
 603              		.loc 1 108 5 is_stmt 1 view .LVU171
 108:src/sys/clock.c ****   case SW_PLL_R:
 604              		.loc 1 108 12 is_stmt 0 view .LVU172
 605 01de FFF7FEBF 		b	get_PLL_PCLK
 606              	.LVL32:
 607              	.L52:
 110:src/sys/clock.c ****   }
 608              		.loc 1 110 5 is_stmt 1 view .LVU173
 110:src/sys/clock.c ****   }
 609              		.loc 1 110 12 is_stmt 0 view .LVU174
 610 01e2 FFF7FEBF 		b	get_PLL_RCLK
 611              	.LVL33:
 612              	.L58:
 110:src/sys/clock.c ****   }
 613              		.loc 1 110 12 view .LVU175
 614 01e6 00BF     		.align	2
 615              	.L57:
 616 01e8 00000000 		.word	RCC
 617 01ec 0024F400 		.word	16000000
 618              		.cfi_endproc
 619              	.LFE405:
 620              		.size	get_SYSCLK, .-get_SYSCLK
 621              		.align	1
 622              		.global	get_AHB_divider_exp
 623              		.syntax unified
 624              		.thumb
 625              		.thumb_func
 626              		.type	get_AHB_divider_exp, %function
 627              	get_AHB_divider_exp:
 628              	.LFB406:
 114:src/sys/clock.c **** 
 115:src/sys/clock.c **** uint32_t get_AHB_divider_exp() {
 629              		.loc 1 115 32 is_stmt 1 view -0
 630              		.cfi_startproc
 631              		@ args = 0, pretend = 0, frame = 0
 632              		@ frame_needed = 0, uses_anonymous_args = 0
 633              		@ link register save eliminated.
 116:src/sys/clock.c ****   uint32_t HPRE=(RCC.CFGR>>4) & 0xf;
 634              		.loc 1 116 3 view .LVU177
 635              		.loc 1 116 21 is_stmt 0 view .LVU178
 636 01f0 044B     		ldr	r3, .L60
 637 01f2 9868     		ldr	r0, [r3, #8]
 638              	.LVL34:
 117:src/sys/clock.c ****   return (HPRE>7?HPRE-7:0);
 639              		.loc 1 117 3 is_stmt 1 view .LVU179
 116:src/sys/clock.c ****   uint32_t HPRE=(RCC.CFGR>>4) & 0xf;
 640              		.loc 1 116 12 is_stmt 0 view .LVU180
 641 01f4 C0F30310 		ubfx	r0, r0, #4, #4
 642              	.LVL35:
 643              		.loc 1 117 24 view .LVU181
 644 01f8 0728     		cmp	r0, #7
 645 01fa 38BF     		it	cc
 646 01fc 0720     		movcc	r0, #7
 118:src/sys/clock.c **** }
 647              		.loc 1 118 1 view .LVU182
 648 01fe 0738     		subs	r0, r0, #7
 649 0200 7047     		bx	lr
 650              	.L61:
 651 0202 00BF     		.align	2
 652              	.L60:
 653 0204 00000000 		.word	RCC
 654              		.cfi_endproc
 655              	.LFE406:
 656              		.size	get_AHB_divider_exp, .-get_AHB_divider_exp
 657              		.align	1
 658              		.global	get_APB1_divider_exp
 659              		.syntax unified
 660              		.thumb
 661              		.thumb_func
 662              		.type	get_APB1_divider_exp, %function
 663              	get_APB1_divider_exp:
 664              	.LFB407:
 119:src/sys/clock.c **** uint32_t get_APB1_divider_exp() {
 665              		.loc 1 119 33 is_stmt 1 view -0
 666              		.cfi_startproc
 667              		@ args = 0, pretend = 0, frame = 0
 668              		@ frame_needed = 0, uses_anonymous_args = 0
 669              		@ link register save eliminated.
 120:src/sys/clock.c ****   uint32_t PPRE1=(RCC.CFGR>>10) & 0x7;
 670              		.loc 1 120 3 view .LVU184
 671              		.loc 1 120 22 is_stmt 0 view .LVU185
 672 0208 044B     		ldr	r3, .L63
 673 020a 9868     		ldr	r0, [r3, #8]
 674              	.LVL36:
 121:src/sys/clock.c ****   return (PPRE1>3?PPRE1-3:0);
 675              		.loc 1 121 3 is_stmt 1 view .LVU186
 120:src/sys/clock.c ****   uint32_t PPRE1=(RCC.CFGR>>10) & 0x7;
 676              		.loc 1 120 12 is_stmt 0 view .LVU187
 677 020c C0F38220 		ubfx	r0, r0, #10, #3
 678              	.LVL37:
 679              		.loc 1 121 26 view .LVU188
 680 0210 0328     		cmp	r0, #3
 681 0212 38BF     		it	cc
 682 0214 0320     		movcc	r0, #3
 122:src/sys/clock.c **** }
 683              		.loc 1 122 1 view .LVU189
 684 0216 0338     		subs	r0, r0, #3
 685 0218 7047     		bx	lr
 686              	.L64:
 687 021a 00BF     		.align	2
 688              	.L63:
 689 021c 00000000 		.word	RCC
 690              		.cfi_endproc
 691              	.LFE407:
 692              		.size	get_APB1_divider_exp, .-get_APB1_divider_exp
 693              		.align	1
 694              		.global	get_APB2_divider_exp
 695              		.syntax unified
 696              		.thumb
 697              		.thumb_func
 698              		.type	get_APB2_divider_exp, %function
 699              	get_APB2_divider_exp:
 700              	.LFB408:
 123:src/sys/clock.c **** uint32_t get_APB2_divider_exp() {
 701              		.loc 1 123 33 is_stmt 1 view -0
 702              		.cfi_startproc
 703              		@ args = 0, pretend = 0, frame = 0
 704              		@ frame_needed = 0, uses_anonymous_args = 0
 705              		@ link register save eliminated.
 124:src/sys/clock.c ****   uint32_t PPRE2=(RCC.CFGR>>13) & 0x7;
 706              		.loc 1 124 3 view .LVU191
 707              		.loc 1 124 22 is_stmt 0 view .LVU192
 708 0220 044B     		ldr	r3, .L66
 709 0222 9868     		ldr	r0, [r3, #8]
 710              	.LVL38:
 125:src/sys/clock.c ****   return (PPRE2>3?PPRE2-3:0);
 711              		.loc 1 125 3 is_stmt 1 view .LVU193
 124:src/sys/clock.c ****   uint32_t PPRE2=(RCC.CFGR>>13) & 0x7;
 712              		.loc 1 124 12 is_stmt 0 view .LVU194
 713 0224 C0F34230 		ubfx	r0, r0, #13, #3
 714              	.LVL39:
 715              		.loc 1 125 26 view .LVU195
 716 0228 0328     		cmp	r0, #3
 717 022a 38BF     		it	cc
 718 022c 0320     		movcc	r0, #3
 126:src/sys/clock.c **** }
 719              		.loc 1 126 1 view .LVU196
 720 022e 0338     		subs	r0, r0, #3
 721 0230 7047     		bx	lr
 722              	.L67:
 723 0232 00BF     		.align	2
 724              	.L66:
 725 0234 00000000 		.word	RCC
 726              		.cfi_endproc
 727              	.LFE408:
 728              		.size	get_APB2_divider_exp, .-get_APB2_divider_exp
 729              		.align	1
 730              		.global	get_AHBCLK
 731              		.syntax unified
 732              		.thumb
 733              		.thumb_func
 734              		.type	get_AHBCLK, %function
 735              	get_AHBCLK:
 736              	.LFB409:
 127:src/sys/clock.c **** 
 128:src/sys/clock.c **** uint32_t get_AHBCLK() {
 737              		.loc 1 128 23 is_stmt 1 view -0
 738              		.cfi_startproc
 739              		@ args = 0, pretend = 0, frame = 0
 740              		@ frame_needed = 0, uses_anonymous_args = 0
 129:src/sys/clock.c ****   return (get_SYSCLK()>>get_AHB_divider_exp());
 741              		.loc 1 129 3 view .LVU198
 128:src/sys/clock.c ****   return (get_SYSCLK()>>get_AHB_divider_exp());
 742              		.loc 1 128 23 is_stmt 0 view .LVU199
 743 0238 08B5     		push	{r3, lr}
 744              		.cfi_def_cfa_offset 8
 745              		.cfi_offset 3, -8
 746              		.cfi_offset 14, -4
 747              		.loc 1 129 11 view .LVU200
 748 023a FFF7FEFF 		bl	get_SYSCLK
 749              	.LVL40:
 750 023e 0246     		mov	r2, r0
 751              		.loc 1 129 25 discriminator 1 view .LVU201
 752 0240 FFF7FEFF 		bl	get_AHB_divider_exp
 753              	.LVL41:
 130:src/sys/clock.c **** }
 754              		.loc 1 130 1 view .LVU202
 755 0244 22FA00F0 		lsr	r0, r2, r0
 756 0248 08BD     		pop	{r3, pc}
 757              		.cfi_endproc
 758              	.LFE409:
 759              		.size	get_AHBCLK, .-get_AHBCLK
 760              		.align	1
 761              		.global	get_APB1CLK
 762              		.syntax unified
 763              		.thumb
 764              		.thumb_func
 765              		.type	get_APB1CLK, %function
 766              	get_APB1CLK:
 767              	.LFB410:
 131:src/sys/clock.c **** 
 132:src/sys/clock.c **** uint32_t get_APB1CLK() {
 768              		.loc 1 132 24 is_stmt 1 view -0
 769              		.cfi_startproc
 770              		@ args = 0, pretend = 0, frame = 0
 771              		@ frame_needed = 0, uses_anonymous_args = 0
 133:src/sys/clock.c ****   return (get_AHBCLK()>>get_APB1_divider_exp());
 772              		.loc 1 133 3 view .LVU204
 132:src/sys/clock.c ****   return (get_AHBCLK()>>get_APB1_divider_exp());
 773              		.loc 1 132 24 is_stmt 0 view .LVU205
 774 024a 08B5     		push	{r3, lr}
 775              		.cfi_def_cfa_offset 8
 776              		.cfi_offset 3, -8
 777              		.cfi_offset 14, -4
 778              		.loc 1 133 11 view .LVU206
 779 024c FFF7FEFF 		bl	get_AHBCLK
 780              	.LVL42:
 781 0250 0246     		mov	r2, r0
 782              		.loc 1 133 25 discriminator 1 view .LVU207
 783 0252 FFF7FEFF 		bl	get_APB1_divider_exp
 784              	.LVL43:
 134:src/sys/clock.c **** }
 785              		.loc 1 134 1 view .LVU208
 786 0256 22FA00F0 		lsr	r0, r2, r0
 787 025a 08BD     		pop	{r3, pc}
 788              		.cfi_endproc
 789              	.LFE410:
 790              		.size	get_APB1CLK, .-get_APB1CLK
 791              		.align	1
 792              		.global	get_APB2CLK
 793              		.syntax unified
 794              		.thumb
 795              		.thumb_func
 796              		.type	get_APB2CLK, %function
 797              	get_APB2CLK:
 798              	.LFB411:
 135:src/sys/clock.c **** 
 136:src/sys/clock.c **** uint32_t get_APB2CLK() {
 799              		.loc 1 136 24 is_stmt 1 view -0
 800              		.cfi_startproc
 801              		@ args = 0, pretend = 0, frame = 0
 802              		@ frame_needed = 0, uses_anonymous_args = 0
 137:src/sys/clock.c ****   return (get_AHBCLK()>>get_APB2_divider_exp());
 803              		.loc 1 137 3 view .LVU210
 136:src/sys/clock.c ****   return (get_AHBCLK()>>get_APB2_divider_exp());
 804              		.loc 1 136 24 is_stmt 0 view .LVU211
 805 025c 08B5     		push	{r3, lr}
 806              		.cfi_def_cfa_offset 8
 807              		.cfi_offset 3, -8
 808              		.cfi_offset 14, -4
 809              		.loc 1 137 11 view .LVU212
 810 025e FFF7FEFF 		bl	get_AHBCLK
 811              	.LVL44:
 812 0262 0246     		mov	r2, r0
 813              		.loc 1 137 25 discriminator 1 view .LVU213
 814 0264 FFF7FEFF 		bl	get_APB2_divider_exp
 815              	.LVL45:
 138:src/sys/clock.c **** }
 816              		.loc 1 138 1 view .LVU214
 817 0268 22FA00F0 		lsr	r0, r2, r0
 818 026c 08BD     		pop	{r3, pc}
 819              		.cfi_endproc
 820              	.LFE411:
 821              		.size	get_APB2CLK, .-get_APB2CLK
 822              		.align	1
 823              		.global	get_APB1TIMCLK
 824              		.syntax unified
 825              		.thumb
 826              		.thumb_func
 827              		.type	get_APB1TIMCLK, %function
 828              	get_APB1TIMCLK:
 829              	.LFB412:
 139:src/sys/clock.c **** 
 140:src/sys/clock.c **** uint32_t get_APB1TIMCLK() {
 830              		.loc 1 140 27 is_stmt 1 view -0
 831              		.cfi_startproc
 832              		@ args = 0, pretend = 0, frame = 0
 833              		@ frame_needed = 0, uses_anonymous_args = 0
 141:src/sys/clock.c ****   uint32_t mult=1+((RCC.DCKCFGR>>24)&1);
 834              		.loc 1 141 3 view .LVU216
 140:src/sys/clock.c ****   uint32_t mult=1+((RCC.DCKCFGR>>24)&1);
 835              		.loc 1 140 27 is_stmt 0 view .LVU217
 836 026e 08B5     		push	{r3, lr}
 837              		.cfi_def_cfa_offset 8
 838              		.cfi_offset 3, -8
 839              		.cfi_offset 14, -4
 840              		.loc 1 141 24 view .LVU218
 841 0270 074B     		ldr	r3, .L73
 842 0272 D3F88C20 		ldr	r2, [r3, #140]
 142:src/sys/clock.c ****   uint32_t div=get_APB1_divider_exp();
 843              		.loc 1 142 16 view .LVU219
 844 0276 FFF7FEFF 		bl	get_APB1_divider_exp
 845              	.LVL46:
 141:src/sys/clock.c ****   uint32_t mult=1+((RCC.DCKCFGR>>24)&1);
 846              		.loc 1 141 37 view .LVU220
 847 027a C2F30062 		ubfx	r2, r2, #24, #1
 141:src/sys/clock.c ****   uint32_t mult=1+((RCC.DCKCFGR>>24)&1);
 848              		.loc 1 141 12 view .LVU221
 849 027e 0132     		adds	r2, r2, #1
 850              	.LVL47:
 851              		.loc 1 142 3 is_stmt 1 view .LVU222
 143:src/sys/clock.c ****   if (div>=mult) div-=mult;
 852              		.loc 1 143 6 is_stmt 0 view .LVU223
 853 0280 8242     		cmp	r2, r0
 142:src/sys/clock.c ****   uint32_t div=get_APB1_divider_exp();
 854              		.loc 1 142 16 view .LVU224
 855 0282 0146     		mov	r1, r0
 856              	.LVL48:
 857              		.loc 1 143 3 is_stmt 1 view .LVU225
 858              		.loc 1 143 18 discriminator 1 view .LVU226
 859              		.loc 1 143 21 is_stmt 0 discriminator 1 view .LVU227
 860 0284 98BF     		it	ls
 861 0286 811A     		subls	r1, r0, r2
 862              	.LVL49:
 144:src/sys/clock.c ****   return (get_AHBCLK()>>div);
 863              		.loc 1 144 3 is_stmt 1 view .LVU228
 864              		.loc 1 144 11 is_stmt 0 view .LVU229
 865 0288 FFF7FEFF 		bl	get_AHBCLK
 866              	.LVL50:
 145:src/sys/clock.c **** }
 867              		.loc 1 145 1 view .LVU230
 868 028c C840     		lsrs	r0, r0, r1
 869 028e 08BD     		pop	{r3, pc}
 870              	.L74:
 871              		.align	2
 872              	.L73:
 873 0290 00000000 		.word	RCC
 874              		.cfi_endproc
 875              	.LFE412:
 876              		.size	get_APB1TIMCLK, .-get_APB1TIMCLK
 877              		.align	1
 878              		.global	get_APB2TIMCLK
 879              		.syntax unified
 880              		.thumb
 881              		.thumb_func
 882              		.type	get_APB2TIMCLK, %function
 883              	get_APB2TIMCLK:
 884              	.LFB413:
 146:src/sys/clock.c **** 
 147:src/sys/clock.c **** uint32_t get_APB2TIMCLK() {
 885              		.loc 1 147 27 is_stmt 1 view -0
 886              		.cfi_startproc
 887              		@ args = 0, pretend = 0, frame = 0
 888              		@ frame_needed = 0, uses_anonymous_args = 0
 148:src/sys/clock.c ****   uint32_t mult=1+((RCC.DCKCFGR>>24)&1);
 889              		.loc 1 148 3 view .LVU232
 147:src/sys/clock.c ****   uint32_t mult=1+((RCC.DCKCFGR>>24)&1);
 890              		.loc 1 147 27 is_stmt 0 view .LVU233
 891 0294 08B5     		push	{r3, lr}
 892              		.cfi_def_cfa_offset 8
 893              		.cfi_offset 3, -8
 894              		.cfi_offset 14, -4
 895              		.loc 1 148 24 view .LVU234
 896 0296 084B     		ldr	r3, .L77
 897 0298 D3F88C20 		ldr	r2, [r3, #140]
 149:src/sys/clock.c ****   uint32_t div=get_APB2_divider_exp();
 898              		.loc 1 149 16 view .LVU235
 899 029c FFF7FEFF 		bl	get_APB2_divider_exp
 900              	.LVL51:
 148:src/sys/clock.c ****   uint32_t mult=1+((RCC.DCKCFGR>>24)&1);
 901              		.loc 1 148 37 view .LVU236
 902 02a0 C2F30062 		ubfx	r2, r2, #24, #1
 148:src/sys/clock.c ****   uint32_t mult=1+((RCC.DCKCFGR>>24)&1);
 903              		.loc 1 148 12 view .LVU237
 904 02a4 0132     		adds	r2, r2, #1
 905              	.LVL52:
 906              		.loc 1 149 3 is_stmt 1 view .LVU238
 150:src/sys/clock.c ****   if (div>=mult) div-=mult;
 907              		.loc 1 150 6 is_stmt 0 view .LVU239
 908 02a6 8242     		cmp	r2, r0
 149:src/sys/clock.c ****   uint32_t div=get_APB2_divider_exp();
 909              		.loc 1 149 16 view .LVU240
 910 02a8 0146     		mov	r1, r0
 911              	.LVL53:
 912              		.loc 1 150 3 is_stmt 1 view .LVU241
 913              		.loc 1 150 18 discriminator 1 view .LVU242
 914              		.loc 1 150 21 is_stmt 0 discriminator 1 view .LVU243
 915 02aa 98BF     		it	ls
 916 02ac 811A     		subls	r1, r0, r2
 917              	.LVL54:
 151:src/sys/clock.c ****   return (get_AHBCLK()>>div);
 918              		.loc 1 151 3 is_stmt 1 view .LVU244
 919              		.loc 1 151 11 is_stmt 0 view .LVU245
 920 02ae FFF7FEFF 		bl	get_AHBCLK
 921              	.LVL55:
 152:src/sys/clock.c **** }
 922              		.loc 1 152 1 view .LVU246
 923 02b2 C840     		lsrs	r0, r0, r1
 924 02b4 08BD     		pop	{r3, pc}
 925              	.L78:
 926 02b6 00BF     		.align	2
 927              	.L77:
 928 02b8 00000000 		.word	RCC
 929              		.cfi_endproc
 930              	.LFE413:
 931              		.size	get_APB2TIMCLK, .-get_APB2TIMCLK
 932              	.Letext0:
 933              		.file 4 "/opt/st/stm32cubeide_2.0.0/plugins/com.st.stm32cube.ide.mcu.externaltools.gnu-tools-for-s
 934              		.file 5 "/opt/st/stm32cubeide_2.0.0/plugins/com.st.stm32cube.ide.mcu.externaltools.gnu-tools-for-s
 935              		.file 6 "src/sys/clock.h"