   1              		.arch armv7e-m
   2              		.fpu fpv4-sp-d16
   3              		.eabi_attribute 27, 1
   4              		.eabi_attribute 28, 1
   5              		.eabi_attribute 20, 1
   6              		.eabi_attribute 21, 1
   7              		.eabi_attribute 23, 3
   8              		.eabi_attribute 24, 1
   9              		.eabi_attribute 25, 1
  10              		.eabi_attribute 26, 1
  11              		.eabi_attribute 30, 4
  12              		.eabi_attribute 34, 1
  13              		.eabi_attribute 18, 4
  14              		.file	"musique.c"
  15              		.text
  16              	.Ltext0:
  17              		.cfi_sections	.debug_frame
  18              		.file 1 "src/sys/musique.c"
  19              		.align	1
  20              		.global	au_clair_de_la_lune
  21              		.syntax unified
  22              		.thumb
  23              		.thumb_func
  24              		.type	au_clair_de_la_lune, %function
  25              	au_clair_de_la_lune:
  26              	.LFB0:
   1:src/sys/musique.c **** #include "musique.h"
   2:src/sys/musique.c **** #include "notes.h"
   3:src/sys/musique.c **** 
   4:src/sys/musique.c **** 
   5:src/sys/musique.c **** extern void au_clair_de_la_lune()
   6:src/sys/musique.c **** {
  27              		.loc 1 6 1 view -0
  28              		.cfi_startproc
  29              		@ args = 0, pretend = 0, frame = 0
  30              		@ frame_needed = 0, uses_anonymous_args = 0
   7:src/sys/musique.c **** 	tempo = 100;
  31              		.loc 1 7 2 view .LVU1
   6:src/sys/musique.c **** 
  32              		.loc 1 6 1 is_stmt 0 view .LVU2
  33 0000 08B5     		push	{r3, lr}
  34              		.cfi_def_cfa_offset 8
  35              		.cfi_offset 3, -8
  36              		.cfi_offset 14, -4
  37              		.loc 1 7 8 view .LVU3
  38 0002 5A4B     		ldr	r3, .L2
  39 0004 6422     		movs	r2, #100
   8:src/sys/musique.c **** 
   9:src/sys/musique.c ****     play_note(DO4, CROCHE);
  40              		.loc 1 9 5 view .LVU4
  41 0006 0021     		movs	r1, #0
  42 0008 0720     		movs	r0, #7
   7:src/sys/musique.c **** 
  43              		.loc 1 7 8 view .LVU5
  44 000a 1A60     		str	r2, [r3]
  45              		.loc 1 9 5 is_stmt 1 view .LVU6
  46 000c FFF7FEFF 		bl	play_note
  47              	.LVL0:
  10:src/sys/musique.c ****     play_note(DO4, CROCHE);
  48              		.loc 1 10 5 view .LVU7
  49 0010 0021     		movs	r1, #0
  50 0012 0720     		movs	r0, #7
  51 0014 FFF7FEFF 		bl	play_note
  52              	.LVL1:
  11:src/sys/musique.c ****     play_note(DO4, CROCHE);
  53              		.loc 1 11 5 view .LVU8
  54 0018 0021     		movs	r1, #0
  55 001a 0720     		movs	r0, #7
  56 001c FFF7FEFF 		bl	play_note
  57              	.LVL2:
  12:src/sys/musique.c ****     play_note(RE4, CROCHE);
  58              		.loc 1 12 5 view .LVU9
  59 0020 0021     		movs	r1, #0
  60 0022 0820     		movs	r0, #8
  61 0024 FFF7FEFF 		bl	play_note
  62              	.LVL3:
  13:src/sys/musique.c ****     play_note(MI4, NOIRE);
  63              		.loc 1 13 5 view .LVU10
  64 0028 0121     		movs	r1, #1
  65 002a 0920     		movs	r0, #9
  66 002c FFF7FEFF 		bl	play_note
  67              	.LVL4:
  14:src/sys/musique.c ****     play_note(RE4, NOIRE);
  68              		.loc 1 14 5 view .LVU11
  69 0030 0121     		movs	r1, #1
  70 0032 0820     		movs	r0, #8
  71 0034 FFF7FEFF 		bl	play_note
  72              	.LVL5:
  15:src/sys/musique.c ****     play_note(DO4, CROCHE);
  73              		.loc 1 15 5 view .LVU12
  74 0038 0021     		movs	r1, #0
  75 003a 0720     		movs	r0, #7
  76 003c FFF7FEFF 		bl	play_note
  77              	.LVL6:
  16:src/sys/musique.c ****     play_note(MI4, CROCHE);
  78              		.loc 1 16 5 view .LVU13
  79 0040 0021     		movs	r1, #0
  80 0042 0920     		movs	r0, #9
  81 0044 FFF7FEFF 		bl	play_note
  82              	.LVL7:
  17:src/sys/musique.c ****     play_note(RE4, CROCHE);
  83              		.loc 1 17 5 view .LVU14
  84 0048 0021     		movs	r1, #0
  85 004a 0820     		movs	r0, #8
  86 004c FFF7FEFF 		bl	play_note
  87              	.LVL8:
  18:src/sys/musique.c ****     play_note(RE4, CROCHE);
  88              		.loc 1 18 5 view .LVU15
  89 0050 0021     		movs	r1, #0
  90 0052 0820     		movs	r0, #8
  91 0054 FFF7FEFF 		bl	play_note
  92              	.LVL9:
  19:src/sys/musique.c ****     play_note(DO4, BLANCHE);
  93              		.loc 1 19 5 view .LVU16
  94 0058 0221     		movs	r1, #2
  95 005a 0720     		movs	r0, #7
  96 005c FFF7FEFF 		bl	play_note
  97              	.LVL10:
  20:src/sys/musique.c ****     
  21:src/sys/musique.c ****     play_note(DO4, CROCHE);
  98              		.loc 1 21 5 view .LVU17
  99 0060 0021     		movs	r1, #0
 100 0062 0720     		movs	r0, #7
 101 0064 FFF7FEFF 		bl	play_note
 102              	.LVL11:
  22:src/sys/musique.c ****     play_note(DO4, CROCHE);
 103              		.loc 1 22 5 view .LVU18
 104 0068 0021     		movs	r1, #0
 105 006a 0720     		movs	r0, #7
 106 006c FFF7FEFF 		bl	play_note
 107              	.LVL12:
  23:src/sys/musique.c ****     play_note(DO4, CROCHE);
 108              		.loc 1 23 5 view .LVU19
 109 0070 0021     		movs	r1, #0
 110 0072 0720     		movs	r0, #7
 111 0074 FFF7FEFF 		bl	play_note
 112              	.LVL13:
  24:src/sys/musique.c ****     play_note(RE4, CROCHE);
 113              		.loc 1 24 5 view .LVU20
 114 0078 0021     		movs	r1, #0
 115 007a 0820     		movs	r0, #8
 116 007c FFF7FEFF 		bl	play_note
 117              	.LVL14:
  25:src/sys/musique.c ****     play_note(MI4, NOIRE);
 118              		.loc 1 25 5 view .LVU21
 119 0080 0121     		movs	r1, #1
 120 0082 0920     		movs	r0, #9
 121 0084 FFF7FEFF 		bl	play_note
 122              	.LVL15:
  26:src/sys/musique.c ****     play_note(RE4, NOIRE);
 123              		.loc 1 26 5 view .LVU22
 124 0088 0121     		movs	r1, #1
 125 008a 0820     		movs	r0, #8
 126 008c FFF7FEFF 		bl	play_note
 127              	.LVL16:
  27:src/sys/musique.c ****     play_note(DO4, CROCHE);
 128              		.loc 1 27 5 view .LVU23
 129 0090 0021     		movs	r1, #0
 130 0092 0720     		movs	r0, #7
 131 0094 FFF7FEFF 		bl	play_note
 132              	.LVL17:
  28:src/sys/musique.c ****     play_note(MI4, CROCHE);
 133              		.loc 1 28 5 view .LVU24
 134 0098 0021     		movs	r1, #0
 135 009a 0920     		movs	r0, #9
 136 009c FFF7FEFF 		bl	play_note
 137              	.LVL18:
  29:src/sys/musique.c ****     play_note(RE4, CROCHE);
 138              		.loc 1 29 5 view .LVU25
 139 00a0 0021     		movs	r1, #0
 140 00a2 0820     		movs	r0, #8
 141 00a4 FFF7FEFF 		bl	play_note
 142              	.LVL19:
  30:src/sys/musique.c ****     play_note(RE4, CROCHE);
 143              		.loc 1 30 5 view .LVU26
 144 00a8 0021     		movs	r1, #0
 145 00aa 0820     		movs	r0, #8
 146 00ac FFF7FEFF 		bl	play_note
 147              	.LVL20:
  31:src/sys/musique.c ****     play_note(DO4, BLANCHE);
 148              		.loc 1 31 5 view .LVU27
 149 00b0 0221     		movs	r1, #2
 150 00b2 0720     		movs	r0, #7
 151 00b4 FFF7FEFF 		bl	play_note
 152              	.LVL21:
  32:src/sys/musique.c **** 
  33:src/sys/musique.c ****     play_note(RE4, CROCHE);
 153              		.loc 1 33 5 view .LVU28
 154 00b8 0021     		movs	r1, #0
 155 00ba 0820     		movs	r0, #8
 156 00bc FFF7FEFF 		bl	play_note
 157              	.LVL22:
  34:src/sys/musique.c ****     play_note(RE4, CROCHE);
 158              		.loc 1 34 5 view .LVU29
 159 00c0 0021     		movs	r1, #0
 160 00c2 0820     		movs	r0, #8
 161 00c4 FFF7FEFF 		bl	play_note
 162              	.LVL23:
  35:src/sys/musique.c ****     play_note(RE4, CROCHE);
 163              		.loc 1 35 5 view .LVU30
 164 00c8 0021     		movs	r1, #0
 165 00ca 0820     		movs	r0, #8
 166 00cc FFF7FEFF 		bl	play_note
 167              	.LVL24:
  36:src/sys/musique.c ****     play_note(RE4, CROCHE);
 168              		.loc 1 36 5 view .LVU31
 169 00d0 0021     		movs	r1, #0
 170 00d2 0820     		movs	r0, #8
 171 00d4 FFF7FEFF 		bl	play_note
 172              	.LVL25:
  37:src/sys/musique.c ****     play_note(LA3, NOIRE);
 173              		.loc 1 37 5 view .LVU32
 174 00d8 0121     		movs	r1, #1
 175 00da 0520     		movs	r0, #5
 176 00dc FFF7FEFF 		bl	play_note
 177              	.LVL26:
  38:src/sys/musique.c ****     play_note(LA3, NOIRE);
 178              		.loc 1 38 5 view .LVU33
 179 00e0 0121     		movs	r1, #1
 180 00e2 0520     		movs	r0, #5
 181 00e4 FFF7FEFF 		bl	play_note
 182              	.LVL27:
  39:src/sys/musique.c ****     play_note(RE4, CROCHE);
 183              		.loc 1 39 5 view .LVU34
 184 00e8 0021     		movs	r1, #0
 185 00ea 0820     		movs	r0, #8
 186 00ec FFF7FEFF 		bl	play_note
 187              	.LVL28:
  40:src/sys/musique.c ****     play_note(DO4, CROCHE);
 188              		.loc 1 40 5 view .LVU35
 189 00f0 0021     		movs	r1, #0
 190 00f2 0720     		movs	r0, #7
 191 00f4 FFF7FEFF 		bl	play_note
 192              	.LVL29:
  41:src/sys/musique.c ****     play_note(SI3, CROCHE);
 193              		.loc 1 41 5 view .LVU36
 194 00f8 0021     		movs	r1, #0
 195 00fa 0620     		movs	r0, #6
 196 00fc FFF7FEFF 		bl	play_note
 197              	.LVL30:
  42:src/sys/musique.c ****     play_note(LA3, CROCHE);
 198              		.loc 1 42 5 view .LVU37
 199 0100 0021     		movs	r1, #0
 200 0102 0520     		movs	r0, #5
 201 0104 FFF7FEFF 		bl	play_note
 202              	.LVL31:
  43:src/sys/musique.c ****     play_note(SOL3, BLANCHE);
 203              		.loc 1 43 5 view .LVU38
 204 0108 0221     		movs	r1, #2
 205 010a 0420     		movs	r0, #4
 206 010c FFF7FEFF 		bl	play_note
 207              	.LVL32:
  44:src/sys/musique.c **** 
  45:src/sys/musique.c ****     play_note(DO4, CROCHE);
 208              		.loc 1 45 5 view .LVU39
 209 0110 0021     		movs	r1, #0
 210 0112 0720     		movs	r0, #7
 211 0114 FFF7FEFF 		bl	play_note
 212              	.LVL33:
  46:src/sys/musique.c ****     play_note(DO4, CROCHE);
 213              		.loc 1 46 5 view .LVU40
 214 0118 0021     		movs	r1, #0
 215 011a 0720     		movs	r0, #7
 216 011c FFF7FEFF 		bl	play_note
 217              	.LVL34:
  47:src/sys/musique.c ****     play_note(DO4, CROCHE);
 218              		.loc 1 47 5 view .LVU41
 219 0120 0021     		movs	r1, #0
 220 0122 0720     		movs	r0, #7
 221 0124 FFF7FEFF 		bl	play_note
 222              	.LVL35:
  48:src/sys/musique.c ****     play_note(RE4, CROCHE);
 223              		.loc 1 48 5 view .LVU42
 224 0128 0021     		movs	r1, #0
 225 012a 0820     		movs	r0, #8
 226 012c FFF7FEFF 		bl	play_note
 227              	.LVL36:
  49:src/sys/musique.c ****     play_note(MI4, NOIRE);
 228              		.loc 1 49 5 view .LVU43
 229 0130 0121     		movs	r1, #1
 230 0132 0920     		movs	r0, #9
 231 0134 FFF7FEFF 		bl	play_note
 232              	.LVL37:
  50:src/sys/musique.c ****     play_note(RE4, NOIRE);
 233              		.loc 1 50 5 view .LVU44
 234 0138 0121     		movs	r1, #1
 235 013a 0820     		movs	r0, #8
 236 013c FFF7FEFF 		bl	play_note
 237              	.LVL38:
  51:src/sys/musique.c ****     play_note(DO4, CROCHE);
 238              		.loc 1 51 5 view .LVU45
 239 0140 0021     		movs	r1, #0
 240 0142 0720     		movs	r0, #7
 241 0144 FFF7FEFF 		bl	play_note
 242              	.LVL39:
  52:src/sys/musique.c ****     play_note(MI4, CROCHE);
 243              		.loc 1 52 5 view .LVU46
 244 0148 0021     		movs	r1, #0
 245 014a 0920     		movs	r0, #9
 246 014c FFF7FEFF 		bl	play_note
 247              	.LVL40:
  53:src/sys/musique.c ****     play_note(RE4, CROCHE);
 248              		.loc 1 53 5 view .LVU47
 249 0150 0021     		movs	r1, #0
 250 0152 0820     		movs	r0, #8
 251 0154 FFF7FEFF 		bl	play_note
 252              	.LVL41:
  54:src/sys/musique.c ****     play_note(RE4, CROCHE);
 253              		.loc 1 54 5 view .LVU48
 254 0158 0021     		movs	r1, #0
 255 015a 0820     		movs	r0, #8
 256 015c FFF7FEFF 		bl	play_note
 257              	.LVL42:
  55:src/sys/musique.c ****     play_note(DO4, BLANCHE);
 258              		.loc 1 55 5 view .LVU49
  56:src/sys/musique.c **** }
 259              		.loc 1 56 1 is_stmt 0 view .LVU50
 260 0160 BDE80840 		pop	{r3, lr}
 261              		.cfi_restore 14
 262              		.cfi_restore 3
 263              		.cfi_def_cfa_offset 0
  55:src/sys/musique.c ****     play_note(DO4, BLANCHE);
 264              		.loc 1 55 5 view .LVU51
 265 0164 0221     		movs	r1, #2
 266 0166 0720     		movs	r0, #7
 267 0168 FFF7FEBF 		b	play_note
 268              	.LVL43:
 269              	.L3:
 270              		.align	2
 271              	.L2:
 272 016c 00000000 		.word	tempo
 273              		.cfi_endproc
 274              	.LFE0:
 275              		.size	au_clair_de_la_lune, .-au_clair_de_la_lune
 276              		.align	1
 277              		.global	megalovania
 278              		.syntax unified
 279              		.thumb
 280              		.thumb_func
 281              		.type	megalovania, %function
 282              	megalovania:
 283              	.LFB1:
  57:src/sys/musique.c **** 
  58:src/sys/musique.c **** 
  59:src/sys/musique.c **** extern void megalovania()
  60:src/sys/musique.c **** {
 284              		.loc 1 60 1 is_stmt 1 view -0
 285              		.cfi_startproc
 286              		@ args = 0, pretend = 0, frame = 0
 287              		@ frame_needed = 0, uses_anonymous_args = 0
  61:src/sys/musique.c ****     tempo = 132;
 288              		.loc 1 61 5 view .LVU53
  60:src/sys/musique.c ****     tempo = 132;
 289              		.loc 1 60 1 is_stmt 0 view .LVU54
 290 0170 08B5     		push	{r3, lr}
 291              		.cfi_def_cfa_offset 8
 292              		.cfi_offset 3, -8
 293              		.cfi_offset 14, -4
 294              		.loc 1 61 11 view .LVU55
 295 0172 704B     		ldr	r3, .L5
 296 0174 8422     		movs	r2, #132
  62:src/sys/musique.c **** 
  63:src/sys/musique.c ****     // ===== RIFF PRINCIPAL =====
  64:src/sys/musique.c ****     play_note(RE4, CROCHE);
 297              		.loc 1 64 5 view .LVU56
 298 0176 0021     		movs	r1, #0
 299 0178 0820     		movs	r0, #8
  61:src/sys/musique.c **** 
 300              		.loc 1 61 11 view .LVU57
 301 017a 1A60     		str	r2, [r3]
 302              		.loc 1 64 5 is_stmt 1 view .LVU58
 303 017c FFF7FEFF 		bl	play_note
 304              	.LVL44:
  65:src/sys/musique.c ****     play_note(RE4, CROCHE);
 305              		.loc 1 65 5 view .LVU59
 306 0180 0021     		movs	r1, #0
 307 0182 0820     		movs	r0, #8
 308 0184 FFF7FEFF 		bl	play_note
 309              	.LVL45:
  66:src/sys/musique.c ****     play_note(RE5, CROCHE);
 310              		.loc 1 66 5 view .LVU60
 311 0188 0021     		movs	r1, #0
 312 018a 0F20     		movs	r0, #15
 313 018c FFF7FEFF 		bl	play_note
 314              	.LVL46:
  67:src/sys/musique.c ****     play_note(LA4, CROCHE);
 315              		.loc 1 67 5 view .LVU61
 316 0190 0021     		movs	r1, #0
 317 0192 0C20     		movs	r0, #12
 318 0194 FFF7FEFF 		bl	play_note
 319              	.LVL47:
  68:src/sys/musique.c ****     play_note(SOL4, CROCHE);
 320              		.loc 1 68 5 view .LVU62
 321 0198 0021     		movs	r1, #0
 322 019a 0B20     		movs	r0, #11
 323 019c FFF7FEFF 		bl	play_note
 324              	.LVL48:
  69:src/sys/musique.c ****     play_note(FA4, CROCHE);
 325              		.loc 1 69 5 view .LVU63
 326 01a0 0021     		movs	r1, #0
 327 01a2 0A20     		movs	r0, #10
 328 01a4 FFF7FEFF 		bl	play_note
 329              	.LVL49:
  70:src/sys/musique.c ****     play_note(RE4, CROCHE);
 330              		.loc 1 70 5 view .LVU64
 331 01a8 0021     		movs	r1, #0
 332 01aa 0820     		movs	r0, #8
 333 01ac FFF7FEFF 		bl	play_note
 334              	.LVL50:
  71:src/sys/musique.c ****     play_note(FA4, CROCHE);
 335              		.loc 1 71 5 view .LVU65
 336 01b0 0021     		movs	r1, #0
 337 01b2 0A20     		movs	r0, #10
 338 01b4 FFF7FEFF 		bl	play_note
 339              	.LVL51:
  72:src/sys/musique.c **** 
  73:src/sys/musique.c ****     play_note(SOL4, CROCHE);
 340              		.loc 1 73 5 view .LVU66
 341 01b8 0021     		movs	r1, #0
 342 01ba 0B20     		movs	r0, #11
 343 01bc FFF7FEFF 		bl	play_note
 344              	.LVL52:
  74:src/sys/musique.c ****     play_note(DO4, CROCHE);
 345              		.loc 1 74 5 view .LVU67
 346 01c0 0021     		movs	r1, #0
 347 01c2 0720     		movs	r0, #7
 348 01c4 FFF7FEFF 		bl	play_note
 349              	.LVL53:
  75:src/sys/musique.c ****     play_note(DO4, CROCHE);
 350              		.loc 1 75 5 view .LVU68
 351 01c8 0021     		movs	r1, #0
 352 01ca 0720     		movs	r0, #7
 353 01cc FFF7FEFF 		bl	play_note
 354              	.LVL54:
  76:src/sys/musique.c ****     play_note(RE5, CROCHE);
 355              		.loc 1 76 5 view .LVU69
 356 01d0 0021     		movs	r1, #0
 357 01d2 0F20     		movs	r0, #15
 358 01d4 FFF7FEFF 		bl	play_note
 359              	.LVL55:
  77:src/sys/musique.c ****     play_note(LA4, CROCHE);
 360              		.loc 1 77 5 view .LVU70
 361 01d8 0021     		movs	r1, #0
 362 01da 0C20     		movs	r0, #12
 363 01dc FFF7FEFF 		bl	play_note
 364              	.LVL56:
  78:src/sys/musique.c ****     play_note(SOL4, CROCHE);
 365              		.loc 1 78 5 view .LVU71
 366 01e0 0021     		movs	r1, #0
 367 01e2 0B20     		movs	r0, #11
 368 01e4 FFF7FEFF 		bl	play_note
 369              	.LVL57:
  79:src/sys/musique.c ****     play_note(FA4, CROCHE);
 370              		.loc 1 79 5 view .LVU72
 371 01e8 0021     		movs	r1, #0
 372 01ea 0A20     		movs	r0, #10
 373 01ec FFF7FEFF 		bl	play_note
 374              	.LVL58:
  80:src/sys/musique.c ****     play_note(RE4, CROCHE);
 375              		.loc 1 80 5 view .LVU73
 376 01f0 0021     		movs	r1, #0
 377 01f2 0820     		movs	r0, #8
 378 01f4 FFF7FEFF 		bl	play_note
 379              	.LVL59:
  81:src/sys/musique.c **** 
  82:src/sys/musique.c ****     // ===== VARIATION =====
  83:src/sys/musique.c ****     play_note(LA3, CROCHE);
 380              		.loc 1 83 5 view .LVU74
 381 01f8 0021     		movs	r1, #0
 382 01fa 0520     		movs	r0, #5
 383 01fc FFF7FEFF 		bl	play_note
 384              	.LVL60:
  84:src/sys/musique.c ****     play_note(LA3, CROCHE);
 385              		.loc 1 84 5 view .LVU75
 386 0200 0021     		movs	r1, #0
 387 0202 0520     		movs	r0, #5
 388 0204 FFF7FEFF 		bl	play_note
 389              	.LVL61:
  85:src/sys/musique.c ****     play_note(RE4, CROCHE);
 390              		.loc 1 85 5 view .LVU76
 391 0208 0021     		movs	r1, #0
 392 020a 0820     		movs	r0, #8
 393 020c FFF7FEFF 		bl	play_note
 394              	.LVL62:
  86:src/sys/musique.c ****     play_note(FA4, CROCHE);
 395              		.loc 1 86 5 view .LVU77
 396 0210 0021     		movs	r1, #0
 397 0212 0A20     		movs	r0, #10
 398 0214 FFF7FEFF 		bl	play_note
 399              	.LVL63:
  87:src/sys/musique.c ****     play_note(SOL4, CROCHE);
 400              		.loc 1 87 5 view .LVU78
 401 0218 0021     		movs	r1, #0
 402 021a 0B20     		movs	r0, #11
 403 021c FFF7FEFF 		bl	play_note
 404              	.LVL64:
  88:src/sys/musique.c ****     play_note(LA4, CROCHE);
 405              		.loc 1 88 5 view .LVU79
 406 0220 0021     		movs	r1, #0
 407 0222 0C20     		movs	r0, #12
 408 0224 FFF7FEFF 		bl	play_note
 409              	.LVL65:
  89:src/sys/musique.c ****     play_note(DO5, CROCHE);
 410              		.loc 1 89 5 view .LVU80
 411 0228 0021     		movs	r1, #0
 412 022a 0E20     		movs	r0, #14
 413 022c FFF7FEFF 		bl	play_note
 414              	.LVL66:
  90:src/sys/musique.c ****     play_note(LA4, CROCHE);
 415              		.loc 1 90 5 view .LVU81
 416 0230 0021     		movs	r1, #0
 417 0232 0C20     		movs	r0, #12
 418 0234 FFF7FEFF 		bl	play_note
 419              	.LVL67:
  91:src/sys/musique.c **** 
  92:src/sys/musique.c ****     play_note(SOL4, CROCHE);
 420              		.loc 1 92 5 view .LVU82
 421 0238 0021     		movs	r1, #0
 422 023a 0B20     		movs	r0, #11
 423 023c FFF7FEFF 		bl	play_note
 424              	.LVL68:
  93:src/sys/musique.c ****     play_note(FA4, CROCHE);
 425              		.loc 1 93 5 view .LVU83
 426 0240 0021     		movs	r1, #0
 427 0242 0A20     		movs	r0, #10
 428 0244 FFF7FEFF 		bl	play_note
 429              	.LVL69:
  94:src/sys/musique.c ****     play_note(RE4, CROCHE);
 430              		.loc 1 94 5 view .LVU84
 431 0248 0021     		movs	r1, #0
 432 024a 0820     		movs	r0, #8
 433 024c FFF7FEFF 		bl	play_note
 434              	.LVL70:
  95:src/sys/musique.c ****     play_note(FA4, CROCHE);
 435              		.loc 1 95 5 view .LVU85
 436 0250 0021     		movs	r1, #0
 437 0252 0A20     		movs	r0, #10
 438 0254 FFF7FEFF 		bl	play_note
 439              	.LVL71:
  96:src/sys/musique.c ****     play_note(SOL4, CROCHE);
 440              		.loc 1 96 5 view .LVU86
 441 0258 0021     		movs	r1, #0
 442 025a 0B20     		movs	r0, #11
 443 025c FFF7FEFF 		bl	play_note
 444              	.LVL72:
  97:src/sys/musique.c ****     play_note(RE4, CROCHE);
 445              		.loc 1 97 5 view .LVU87
 446 0260 0021     		movs	r1, #0
 447 0262 0820     		movs	r0, #8
 448 0264 FFF7FEFF 		bl	play_note
 449              	.LVL73:
  98:src/sys/musique.c ****     play_note(DO4, CROCHE);
 450              		.loc 1 98 5 view .LVU88
 451 0268 0021     		movs	r1, #0
 452 026a 0720     		movs	r0, #7
 453 026c FFF7FEFF 		bl	play_note
 454              	.LVL74:
  99:src/sys/musique.c ****     play_note(LA3, CROCHE);
 455              		.loc 1 99 5 view .LVU89
 456 0270 0021     		movs	r1, #0
 457 0272 0520     		movs	r0, #5
 458 0274 FFF7FEFF 		bl	play_note
 459              	.LVL75:
 100:src/sys/musique.c **** 
 101:src/sys/musique.c ****     // ===== PARTIE PLUS INTENSE =====
 102:src/sys/musique.c ****     play_note(RE5, CROCHE);
 460              		.loc 1 102 5 view .LVU90
 461 0278 0021     		movs	r1, #0
 462 027a 0F20     		movs	r0, #15
 463 027c FFF7FEFF 		bl	play_note
 464              	.LVL76:
 103:src/sys/musique.c ****     play_note(DO5, CROCHE);
 465              		.loc 1 103 5 view .LVU91
 466 0280 0021     		movs	r1, #0
 467 0282 0E20     		movs	r0, #14
 468 0284 FFF7FEFF 		bl	play_note
 469              	.LVL77:
 104:src/sys/musique.c ****     play_note(LA4, CROCHE);
 470              		.loc 1 104 5 view .LVU92
 471 0288 0021     		movs	r1, #0
 472 028a 0C20     		movs	r0, #12
 473 028c FFF7FEFF 		bl	play_note
 474              	.LVL78:
 105:src/sys/musique.c ****     play_note(SOL4, CROCHE);
 475              		.loc 1 105 5 view .LVU93
 476 0290 0021     		movs	r1, #0
 477 0292 0B20     		movs	r0, #11
 478 0294 FFF7FEFF 		bl	play_note
 479              	.LVL79:
 106:src/sys/musique.c ****     play_note(FA4, CROCHE);
 480              		.loc 1 106 5 view .LVU94
 481 0298 0021     		movs	r1, #0
 482 029a 0A20     		movs	r0, #10
 483 029c FFF7FEFF 		bl	play_note
 484              	.LVL80:
 107:src/sys/musique.c ****     play_note(SOL4, CROCHE);
 485              		.loc 1 107 5 view .LVU95
 486 02a0 0021     		movs	r1, #0
 487 02a2 0B20     		movs	r0, #11
 488 02a4 FFF7FEFF 		bl	play_note
 489              	.LVL81:
 108:src/sys/musique.c ****     play_note(LA4, CROCHE);
 490              		.loc 1 108 5 view .LVU96
 491 02a8 0021     		movs	r1, #0
 492 02aa 0C20     		movs	r0, #12
 493 02ac FFF7FEFF 		bl	play_note
 494              	.LVL82:
 109:src/sys/musique.c ****     play_note(DO5, CROCHE);
 495              		.loc 1 109 5 view .LVU97
 496 02b0 0021     		movs	r1, #0
 497 02b2 0E20     		movs	r0, #14
 498 02b4 FFF7FEFF 		bl	play_note
 499              	.LVL83:
 110:src/sys/musique.c **** 
 111:src/sys/musique.c ****     play_note(RE5, CROCHE);
 500              		.loc 1 111 5 view .LVU98
 501 02b8 0021     		movs	r1, #0
 502 02ba 0F20     		movs	r0, #15
 503 02bc FFF7FEFF 		bl	play_note
 504              	.LVL84:
 112:src/sys/musique.c ****     play_note(RE5, CROCHE);
 505              		.loc 1 112 5 view .LVU99
 506 02c0 0021     		movs	r1, #0
 507 02c2 0F20     		movs	r0, #15
 508 02c4 FFF7FEFF 		bl	play_note
 509              	.LVL85:
 113:src/sys/musique.c ****     play_note(RE5, CROCHE);
 510              		.loc 1 113 5 view .LVU100
 511 02c8 0021     		movs	r1, #0
 512 02ca 0F20     		movs	r0, #15
 513 02cc FFF7FEFF 		bl	play_note
 514              	.LVL86:
 114:src/sys/musique.c ****     play_note(DO5, CROCHE);
 515              		.loc 1 114 5 view .LVU101
 516 02d0 0021     		movs	r1, #0
 517 02d2 0E20     		movs	r0, #14
 518 02d4 FFF7FEFF 		bl	play_note
 519              	.LVL87:
 115:src/sys/musique.c ****     play_note(LA4, CROCHE);
 520              		.loc 1 115 5 view .LVU102
 521 02d8 0021     		movs	r1, #0
 522 02da 0C20     		movs	r0, #12
 523 02dc FFF7FEFF 		bl	play_note
 524              	.LVL88:
 116:src/sys/musique.c ****     play_note(SOL4, CROCHE);
 525              		.loc 1 116 5 view .LVU103
 526 02e0 0021     		movs	r1, #0
 527 02e2 0B20     		movs	r0, #11
 528 02e4 FFF7FEFF 		bl	play_note
 529              	.LVL89:
 117:src/sys/musique.c ****     play_note(FA4, CROCHE);
 530              		.loc 1 117 5 view .LVU104
 531 02e8 0021     		movs	r1, #0
 532 02ea 0A20     		movs	r0, #10
 533 02ec FFF7FEFF 		bl	play_note
 534              	.LVL90:
 118:src/sys/musique.c ****     play_note(RE4, BLANCHE);
 535              		.loc 1 118 5 view .LVU105
 536 02f0 0221     		movs	r1, #2
 537 02f2 0820     		movs	r0, #8
 538 02f4 FFF7FEFF 		bl	play_note
 539              	.LVL91:
 119:src/sys/musique.c **** 
 120:src/sys/musique.c ****     // ===== OUTRO (bouclable) =====
 121:src/sys/musique.c ****     play_note(RE4, CROCHE);
 540              		.loc 1 121 5 view .LVU106
 541 02f8 0021     		movs	r1, #0
 542 02fa 0820     		movs	r0, #8
 543 02fc FFF7FEFF 		bl	play_note
 544              	.LVL92:
 122:src/sys/musique.c ****     play_note(FA4, CROCHE);
 545              		.loc 1 122 5 view .LVU107
 546 0300 0021     		movs	r1, #0
 547 0302 0A20     		movs	r0, #10
 548 0304 FFF7FEFF 		bl	play_note
 549              	.LVL93:
 123:src/sys/musique.c ****     play_note(SOL4, CROCHE);
 550              		.loc 1 123 5 view .LVU108
 551 0308 0021     		movs	r1, #0
 552 030a 0B20     		movs	r0, #11
 553 030c FFF7FEFF 		bl	play_note
 554              	.LVL94:
 124:src/sys/musique.c ****     play_note(LA4, CROCHE);
 555              		.loc 1 124 5 view .LVU109
 556 0310 0021     		movs	r1, #0
 557 0312 0C20     		movs	r0, #12
 558 0314 FFF7FEFF 		bl	play_note
 559              	.LVL95:
 125:src/sys/musique.c ****     play_note(RE5, NOIRE);
 560              		.loc 1 125 5 view .LVU110
 561 0318 0121     		movs	r1, #1
 562 031a 0F20     		movs	r0, #15
 563 031c FFF7FEFF 		bl	play_note
 564              	.LVL96:
 126:src/sys/musique.c ****     play_note(LA4, NOIRE);
 565              		.loc 1 126 5 view .LVU111
 566 0320 0121     		movs	r1, #1
 567 0322 0C20     		movs	r0, #12
 568 0324 FFF7FEFF 		bl	play_note
 569              	.LVL97:
 127:src/sys/musique.c ****     play_note(SOL4, BLANCHE);
 570              		.loc 1 127 5 view .LVU112
 128:src/sys/musique.c **** }
 571              		.loc 1 128 1 is_stmt 0 view .LVU113
 572 0328 BDE80840 		pop	{r3, lr}
 573              		.cfi_restore 14
 574              		.cfi_restore 3
 575              		.cfi_def_cfa_offset 0
 127:src/sys/musique.c ****     play_note(SOL4, BLANCHE);
 576              		.loc 1 127 5 view .LVU114
 577 032c 0221     		movs	r1, #2
 578 032e 0B20     		movs	r0, #11
 579 0330 FFF7FEBF 		b	play_note
 580              	.LVL98:
 581              	.L6:
 582              		.align	2
 583              	.L5:
 584 0334 00000000 		.word	tempo
 585              		.cfi_endproc
 586              	.LFE1:
 587              		.size	megalovania, .-megalovania
 588              		.align	1
 589              		.global	die_forelle
 590              		.syntax unified
 591              		.thumb
 592              		.thumb_func
 593              		.type	die_forelle, %function
 594              	die_forelle:
 595              	.LFB2:
 129:src/sys/musique.c **** 
 130:src/sys/musique.c **** 
 131:src/sys/musique.c **** extern void die_forelle()
 132:src/sys/musique.c **** {
 596              		.loc 1 132 1 is_stmt 1 view -0
 597              		.cfi_startproc
 598              		@ args = 0, pretend = 0, frame = 0
 599              		@ frame_needed = 0, uses_anonymous_args = 0
 133:src/sys/musique.c ****     tempo = 140;  // tempo de la mélodie (adaptable)
 600              		.loc 1 133 5 view .LVU116
 132:src/sys/musique.c ****     tempo = 140;  // tempo de la mélodie (adaptable)
 601              		.loc 1 132 1 is_stmt 0 view .LVU117
 602 0338 08B5     		push	{r3, lr}
 603              		.cfi_def_cfa_offset 8
 604              		.cfi_offset 3, -8
 605              		.cfi_offset 14, -4
 606              		.loc 1 133 11 view .LVU118
 607 033a 434B     		ldr	r3, .L8
 608 033c 8C22     		movs	r2, #140
 134:src/sys/musique.c **** 
 135:src/sys/musique.c **** // Ligne 1
 136:src/sys/musique.c **** play_note(DO4, CROCHE);   
 609              		.loc 1 136 1 view .LVU119
 610 033e 0021     		movs	r1, #0
 611 0340 0720     		movs	r0, #7
 133:src/sys/musique.c **** 
 612              		.loc 1 133 11 view .LVU120
 613 0342 1A60     		str	r2, [r3]
 614              		.loc 1 136 1 is_stmt 1 view .LVU121
 615 0344 FFF7FEFF 		bl	play_note
 616              	.LVL99:
 137:src/sys/musique.c **** play_note(DO4, CROCHE);   
 617              		.loc 1 137 1 view .LVU122
 618 0348 0021     		movs	r1, #0
 619 034a 0720     		movs	r0, #7
 620 034c FFF7FEFF 		bl	play_note
 621              	.LVL100:
 138:src/sys/musique.c **** play_note(MI4, CROCHE);   
 622              		.loc 1 138 1 view .LVU123
 623 0350 0021     		movs	r1, #0
 624 0352 0920     		movs	r0, #9
 625 0354 FFF7FEFF 		bl	play_note
 626              	.LVL101:
 139:src/sys/musique.c **** play_note(MI4, CROCHE);   
 627              		.loc 1 139 1 view .LVU124
 628 0358 0021     		movs	r1, #0
 629 035a 0920     		movs	r0, #9
 630 035c FFF7FEFF 		bl	play_note
 631              	.LVL102:
 140:src/sys/musique.c **** 
 141:src/sys/musique.c **** play_note(DO4, NOIRE);   
 632              		.loc 1 141 1 view .LVU125
 633 0360 0121     		movs	r1, #1
 634 0362 0720     		movs	r0, #7
 635 0364 FFF7FEFF 		bl	play_note
 636              	.LVL103:
 142:src/sys/musique.c **** play_note(SOL4, CROCHE);  
 637              		.loc 1 142 1 view .LVU126
 638 0368 0021     		movs	r1, #0
 639 036a 0B20     		movs	r0, #11
 640 036c FFF7FEFF 		bl	play_note
 641              	.LVL104:
 143:src/sys/musique.c **** play_note(SOL4, CROCHE);  
 642              		.loc 1 143 1 view .LVU127
 643 0370 0021     		movs	r1, #0
 644 0372 0B20     		movs	r0, #11
 645 0374 FFF7FEFF 		bl	play_note
 646              	.LVL105:
 144:src/sys/musique.c **** 
 145:src/sys/musique.c **** play_note(SOL3, CROCHE);  
 647              		.loc 1 145 1 view .LVU128
 648 0378 0021     		movs	r1, #0
 649 037a 0420     		movs	r0, #4
 650 037c FFF7FEFF 		bl	play_note
 651              	.LVL106:
 146:src/sys/musique.c **** play_note(SOL3, CROCHE);  
 652              		.loc 1 146 1 view .LVU129
 653 0380 0021     		movs	r1, #0
 654 0382 0420     		movs	r0, #4
 655 0384 FFF7FEFF 		bl	play_note
 656              	.LVL107:
 147:src/sys/musique.c **** play_note(RE4, CROCHE);  
 657              		.loc 1 147 1 view .LVU130
 658 0388 0021     		movs	r1, #0
 659 038a 0820     		movs	r0, #8
 660 038c FFF7FEFF 		bl	play_note
 661              	.LVL108:
 148:src/sys/musique.c **** play_note(DO4, CROCHE);  
 662              		.loc 1 148 1 view .LVU131
 663 0390 0021     		movs	r1, #0
 664 0392 0720     		movs	r0, #7
 665 0394 FFF7FEFF 		bl	play_note
 666              	.LVL109:
 149:src/sys/musique.c **** play_note(SI3, CROCHE);  
 667              		.loc 1 149 1 view .LVU132
 668 0398 0021     		movs	r1, #0
 669 039a 0620     		movs	r0, #6
 670 039c FFF7FEFF 		bl	play_note
 671              	.LVL110:
 150:src/sys/musique.c **** play_note(LA3, CROCHE);  
 672              		.loc 1 150 1 view .LVU133
 673 03a0 0021     		movs	r1, #0
 674 03a2 0520     		movs	r0, #5
 675 03a4 FFF7FEFF 		bl	play_note
 676              	.LVL111:
 151:src/sys/musique.c **** 
 152:src/sys/musique.c **** play_note(SOL4, NOIRE);  
 677              		.loc 1 152 1 view .LVU134
 678 03a8 0121     		movs	r1, #1
 679 03aa 0B20     		movs	r0, #11
 680 03ac FFF7FEFF 		bl	play_note
 681              	.LVL112:
 153:src/sys/musique.c **** eteindre_son();
 682              		.loc 1 153 1 view .LVU135
 683 03b0 FFF7FEFF 		bl	eteindre_son
 684              	.LVL113:
 154:src/sys/musique.c **** delay_par_duree( CROCHE);  
 685              		.loc 1 154 1 view .LVU136
 686 03b4 0020     		movs	r0, #0
 687 03b6 FFF7FEFF 		bl	delay_par_duree
 688              	.LVL114:
 155:src/sys/musique.c **** play_note(SOL4, CROCHE);
 689              		.loc 1 155 1 view .LVU137
 690 03ba 0021     		movs	r1, #0
 691 03bc 0B20     		movs	r0, #11
 692 03be FFF7FEFF 		bl	play_note
 693              	.LVL115:
 156:src/sys/musique.c **** 
 157:src/sys/musique.c **** // Ligne 2
 158:src/sys/musique.c **** play_note(DO4, CROCHE);  
 694              		.loc 1 158 1 view .LVU138
 695 03c2 0021     		movs	r1, #0
 696 03c4 0720     		movs	r0, #7
 697 03c6 FFF7FEFF 		bl	play_note
 698              	.LVL116:
 159:src/sys/musique.c **** play_note(DO4, CROCHE);  
 699              		.loc 1 159 1 view .LVU139
 700 03ca 0021     		movs	r1, #0
 701 03cc 0720     		movs	r0, #7
 702 03ce FFF7FEFF 		bl	play_note
 703              	.LVL117:
 160:src/sys/musique.c **** play_note(MI4, CROCHE);  
 704              		.loc 1 160 1 view .LVU140
 705 03d2 0021     		movs	r1, #0
 706 03d4 0920     		movs	r0, #9
 707 03d6 FFF7FEFF 		bl	play_note
 708              	.LVL118:
 161:src/sys/musique.c **** play_note(MI4, CROCHE);  
 709              		.loc 1 161 1 view .LVU141
 710 03da 0021     		movs	r1, #0
 711 03dc 0920     		movs	r0, #9
 712 03de FFF7FEFF 		bl	play_note
 713              	.LVL119:
 162:src/sys/musique.c **** 
 163:src/sys/musique.c **** play_note(DO4, NOIRE);  
 714              		.loc 1 163 1 view .LVU142
 715 03e2 0121     		movs	r1, #1
 716 03e4 0720     		movs	r0, #7
 717 03e6 FFF7FEFF 		bl	play_note
 718              	.LVL120:
 164:src/sys/musique.c **** play_note(SOL4, CROCHE);  
 719              		.loc 1 164 1 view .LVU143
 720 03ea 0021     		movs	r1, #0
 721 03ec 0B20     		movs	r0, #11
 722 03ee FFF7FEFF 		bl	play_note
 723              	.LVL121:
 165:src/sys/musique.c **** play_note(DO4, CROCHE);  
 724              		.loc 1 165 1 view .LVU144
 725 03f2 0021     		movs	r1, #0
 726 03f4 0720     		movs	r0, #7
 727 03f6 FFF7FEFF 		bl	play_note
 728              	.LVL122:
 166:src/sys/musique.c **** 
 167:src/sys/musique.c **** play_note(SI4, CROCHE);  
 729              		.loc 1 167 1 view .LVU145
 730 03fa 0021     		movs	r1, #0
 731 03fc 0D20     		movs	r0, #13
 732 03fe FFF7FEFF 		bl	play_note
 733              	.LVL123:
 168:src/sys/musique.c **** play_note(LA4, CROCHE);  
 734              		.loc 1 168 1 view .LVU146
 735 0402 0021     		movs	r1, #0
 736 0404 0C20     		movs	r0, #12
 737 0406 FFF7FEFF 		bl	play_note
 738              	.LVL124:
 169:src/sys/musique.c **** play_note(SI4, CROCHE);  
 739              		.loc 1 169 1 view .LVU147
 740 040a 0021     		movs	r1, #0
 741 040c 0D20     		movs	r0, #13
 742 040e FFF7FEFF 		bl	play_note
 743              	.LVL125:
 170:src/sys/musique.c **** play_note(DO4, CROCHE);  
 744              		.loc 1 170 1 view .LVU148
 745 0412 0021     		movs	r1, #0
 746 0414 0720     		movs	r0, #7
 747 0416 FFF7FEFF 		bl	play_note
 748              	.LVL126:
 171:src/sys/musique.c **** play_note(FA4, CROCHE);  
 749              		.loc 1 171 1 view .LVU149
 750 041a 0021     		movs	r1, #0
 751 041c 0A20     		movs	r0, #10
 752 041e FFF7FEFF 		bl	play_note
 753              	.LVL127:
 172:src/sys/musique.c **** play_note(FA4, CROCHE);  
 754              		.loc 1 172 1 view .LVU150
 755 0422 0021     		movs	r1, #0
 756 0424 0A20     		movs	r0, #10
 757 0426 FFF7FEFF 		bl	play_note
 758              	.LVL128:
 173:src/sys/musique.c **** 
 174:src/sys/musique.c **** play_note(SOL4, NOIRE);  
 759              		.loc 1 174 1 view .LVU151
 760 042a 0121     		movs	r1, #1
 761 042c 0B20     		movs	r0, #11
 762 042e FFF7FEFF 		bl	play_note
 763              	.LVL129:
 175:src/sys/musique.c **** eteindre_son();
 764              		.loc 1 175 1 view .LVU152
 765 0432 FFF7FEFF 		bl	eteindre_son
 766              	.LVL130:
 176:src/sys/musique.c **** delay_par_duree( CROCHE);  
 767              		.loc 1 176 1 view .LVU153
 768 0436 0020     		movs	r0, #0
 769 0438 FFF7FEFF 		bl	delay_par_duree
 770              	.LVL131:
 177:src/sys/musique.c **** play_note(SOL4, CROCHE);
 771              		.loc 1 177 1 view .LVU154
 178:src/sys/musique.c **** 
 179:src/sys/musique.c **** 
 180:src/sys/musique.c **** }
 772              		.loc 1 180 1 is_stmt 0 view .LVU155
 773 043c BDE80840 		pop	{r3, lr}
 774              		.cfi_restore 14
 775              		.cfi_restore 3
 776              		.cfi_def_cfa_offset 0
 177:src/sys/musique.c **** play_note(SOL4, CROCHE);
 777              		.loc 1 177 1 view .LVU156
 778 0440 0021     		movs	r1, #0
 779 0442 0B20     		movs	r0, #11
 780 0444 FFF7FEBF 		b	play_note
 781              	.LVL132:
 782              	.L9:
 783              		.align	2
 784              	.L8:
 785 0448 00000000 		.word	tempo
 786              		.cfi_endproc
 787              	.LFE2:
 788              		.size	die_forelle, .-die_forelle
 789              	.Letext0:
 790              		.file 2 "/opt/st/stm32cubeide_2.0.0/plugins/com.st.stm32cube.ide.mcu.externaltools.gnu-tools-for-s
 791              		.file 3 "/opt/st/stm32cubeide_2.0.0/plugins/com.st.stm32cube.ide.mcu.externaltools.gnu-tools-for-s
 792              		.file 4 "src/sys/notes.h"