   1              		.arch armv7e-m
   2              		.fpu fpv4-sp-d16
   3              		.eabi_attribute 27, 1
   4              		.eabi_attribute 28, 1
   5              		.eabi_attribute 20, 1
   6              		.eabi_attribute 21, 1
   7              		.eabi_attribute 23, 3
   8              		.eabi_attribute 24, 1
   9              		.eabi_attribute 25, 1
  10              		.eabi_attribute 26, 1
  11              		.eabi_attribute 30, 4
  12              		.eabi_attribute 34, 1
  13              		.eabi_attribute 18, 4
  14              		.file	"notes.c"
  15              		.text
  16              	.Ltext0:
  17              		.cfi_sections	.debug_frame
  18              		.file 1 "src/sys/notes.c"
  19              		.align	1
  20              		.global	delay
  21              		.syntax unified
  22              		.thumb
  23              		.thumb_func
  24              		.type	delay, %function
  25              	delay:
  26              	.LVL0:
  27              	.LFB400:
   1:src/sys/notes.c **** #include "devices.h"
   2:src/sys/notes.c **** #include "init.h"
   3:src/sys/notes.c **** #include "clock.h"
   4:src/sys/notes.c **** #include "notes.h"
   5:src/sys/notes.c **** #include "timer.h"
   6:src/sys/notes.c **** #include "cm4.h"
   7:src/sys/notes.c **** #include "devices.h"
   8:src/sys/notes.c **** #include "init.h"
   9:src/sys/notes.c **** #include "clock.h"
  10:src/sys/notes.c **** #include<stdint.h>
  11:src/sys/notes.c **** #include "potentiometer.h"
  12:src/sys/notes.c **** #include "stdio.h"
  13:src/sys/notes.c **** #include <math.h>
  14:src/sys/notes.c **** 
  15:src/sys/notes.c **** /**
  16:src/sys/notes.c ****  * @brief Function que fait une pause
  17:src/sys/notes.c ****  * 
  18:src/sys/notes.c ****  * @param time milisecondes a faire la pause
  19:src/sys/notes.c ****  */
  20:src/sys/notes.c **** uint32_t tempo = 60;        // Declaration de la variable global tempo
  21:src/sys/notes.c **** 
  22:src/sys/notes.c **** static const uint32_t notes_arr[] =
  23:src/sys/notes.c **** {
  24:src/sys/notes.c ****     /*====== 3e octave ====== */
  25:src/sys/notes.c **** 
  26:src/sys/notes.c **** 	1376055,    // DO3
  27:src/sys/notes.c **** 	1298793,    // REb3
  28:src/sys/notes.c **** 	1298793,	// DO#3
  29:src/sys/notes.c ****     1225822,    // RE3
  30:src/sys/notes.c **** 	1156871,    // RE#3
  31:src/sys/notes.c **** 	1156871,	// MIb3
  32:src/sys/notes.c ****     1091684,    // MI3
  33:src/sys/notes.c ****     1030864,    // FA3
  34:src/sys/notes.c ****     973083,     // FA#3
  35:src/sys/notes.c **** 	973083,		// SOLb3
  36:src/sys/notes.c ****     918366,     // SOL3
  37:src/sys/notes.c ****     866621,     // SOL#3
  38:src/sys/notes.c **** 	866621,		// LAb3
  39:src/sys/notes.c ****     818180,     // LA3
  40:src/sys/notes.c ****     772259,     // LA#3
  41:src/sys/notes.c **** 	772259,		// SIb3
  42:src/sys/notes.c ****     728919,     // SI3
  43:src/sys/notes.c **** 
  44:src/sys/notes.c ****     /*====== 4e octave ======*/
  45:src/sys/notes.c **** 
  46:src/sys/notes.c **** 	687993,     // DO4
  47:src/sys/notes.c **** 	649397,     // DO#4
  48:src/sys/notes.c **** 	649397,		// REb4
  49:src/sys/notes.c **** 	612952,     // RE4
  50:src/sys/notes.c **** 	578559,     // RE#4
  51:src/sys/notes.c **** 	578559,		// MIb4
  52:src/sys/notes.c **** 	546065,     // MI4
  53:src/sys/notes.c **** 	512418,     // FA4
  54:src/sys/notes.c **** 	486541,     // FA#4
  55:src/sys/notes.c **** 	486541,		// SOLb4
  56:src/sys/notes.c **** 	459182,     // SOL4
  57:src/sys/notes.c **** 	433310,     // SOL#4
  58:src/sys/notes.c **** 	433310,		// LAb4
  59:src/sys/notes.c **** 	409089,     // LA4
  60:src/sys/notes.c **** 	386129,     // LA#4
  61:src/sys/notes.c **** 	386129,		// SIb4
  62:src/sys/notes.c **** 	364460,     // SI4
  63:src/sys/notes.c **** 
  64:src/sys/notes.c ****     /*====== 5e octave ======*/
  65:src/sys/notes.c **** 
  66:src/sys/notes.c ****     343996,     // DO5
  67:src/sys/notes.c ****     324699,     // DO#5
  68:src/sys/notes.c **** 	324699,		// REb5
  69:src/sys/notes.c ****     306476,     // RE5
  70:src/sys/notes.c ****     289280,     // RE#5
  71:src/sys/notes.c **** 	289280,		// MIb5
  72:src/sys/notes.c ****     273032,     // MI5
  73:src/sys/notes.c ****     256209,     // FA5
  74:src/sys/notes.c ****     243270,     // FA#5
  75:src/sys/notes.c **** 	243270,		// SOLb5
  76:src/sys/notes.c ****     229591,     // SOL5
  77:src/sys/notes.c ****     216655,     // SOL#5
  78:src/sys/notes.c **** 	216655,		// LAb5
  79:src/sys/notes.c ****     204545,     // LA5
  80:src/sys/notes.c ****     193064,     // LA#5
  81:src/sys/notes.c **** 	193064,		// SIb5
  82:src/sys/notes.c ****     182230,     // SI5
  83:src/sys/notes.c **** 
  84:src/sys/notes.c **** 	/*====== 6e octave ======*/
  85:src/sys/notes.c **** 	171998,  	// DO6
  86:src/sys/notes.c **** 	153238      // RE6
  87:src/sys/notes.c **** };
  88:src/sys/notes.c **** 
  89:src/sys/notes.c **** extern void delay(uint32_t ms)
  90:src/sys/notes.c **** {
  28              		.loc 1 90 1 view -0
  29              		.cfi_startproc
  30              		@ args = 0, pretend = 0, frame = 8
  31              		@ frame_needed = 0, uses_anonymous_args = 0
  32              		@ link register save eliminated.
  91:src/sys/notes.c ****     while (ms--)
  33              		.loc 1 91 5 view .LVU1
  90:src/sys/notes.c ****     while (ms--)
  34              		.loc 1 90 1 is_stmt 0 view .LVU2
  35 0000 82B0     		sub	sp, sp, #8
  36              		.cfi_def_cfa_offset 8
  37              	.LBB2:
  92:src/sys/notes.c ****     {
  93:src/sys/notes.c ****         for (volatile uint32_t  t = 0; t < 18000; t++)
  38              		.loc 1 93 33 view .LVU3
  39 0002 0022     		movs	r2, #0
  40              		.loc 1 93 42 discriminator 1 view .LVU4
  41 0004 44F24F61 		movw	r1, #17999
  42              	.LVL1:
  43              	.L2:
  44              		.loc 1 93 42 discriminator 1 view .LVU5
  45              	.LBE2:
  91:src/sys/notes.c ****     {
  46              		.loc 1 91 12 is_stmt 1 view .LVU6
  47 0008 0138     		subs	r0, r0, #1
  48              	.LVL2:
  91:src/sys/notes.c ****     {
  49              		.loc 1 91 12 is_stmt 0 view .LVU7
  50 000a 01D2     		bcs	.L5
  94:src/sys/notes.c ****         {
  95:src/sys/notes.c ****         }
  96:src/sys/notes.c ****     }
  97:src/sys/notes.c ****     
  98:src/sys/notes.c **** }
  51              		.loc 1 98 1 view .LVU8
  52 000c 02B0     		add	sp, sp, #8
  53              		.cfi_remember_state
  54              		.cfi_def_cfa_offset 0
  55              		@ sp needed
  56 000e 7047     		bx	lr
  57              	.L5:
  58              		.cfi_restore_state
  93:src/sys/notes.c ****         {
  59              		.loc 1 93 9 is_stmt 1 view .LVU9
  60              	.LBB3:
  93:src/sys/notes.c ****         {
  61              		.loc 1 93 14 view .LVU10
  93:src/sys/notes.c ****         {
  62              		.loc 1 93 33 is_stmt 0 view .LVU11
  63 0010 0192     		str	r2, [sp, #4]
  64              	.L3:
  93:src/sys/notes.c ****         {
  65              		.loc 1 93 42 is_stmt 1 discriminator 1 view .LVU12
  66 0012 019B     		ldr	r3, [sp, #4]
  67 0014 8B42     		cmp	r3, r1
  68 0016 F7D8     		bhi	.L2
  95:src/sys/notes.c ****     }
  69              		.loc 1 95 9 view .LVU13
  93:src/sys/notes.c ****         {
  70              		.loc 1 93 52 discriminator 3 view .LVU14
  71 0018 019B     		ldr	r3, [sp, #4]
  72 001a 0133     		adds	r3, r3, #1
  73 001c 0193     		str	r3, [sp, #4]
  74 001e F8E7     		b	.L3
  75              	.LBE3:
  76              		.cfi_endproc
  77              	.LFE400:
  78              		.size	delay, .-delay
  79              		.align	1
  80              		.global	delay_par_duree
  81              		.syntax unified
  82              		.thumb
  83              		.thumb_func
  84              		.type	delay_par_duree, %function
  85              	delay_par_duree:
  86              	.LVL3:
  87              	.LFB401:
  99:src/sys/notes.c **** 
 100:src/sys/notes.c **** extern void delay_par_duree(rythme RYTHME)
 101:src/sys/notes.c **** {
  88              		.loc 1 101 1 view -0
  89              		.cfi_startproc
  90              		@ args = 0, pretend = 0, frame = 0
  91              		@ frame_needed = 0, uses_anonymous_args = 0
  92              		@ link register save eliminated.
 102:src/sys/notes.c ****     uint32_t duree_noire = 60000/tempo;		// Attention il faut mettre (30 * 1000 ) / tempo
  93              		.loc 1 102 5 view .LVU16
  94              		.loc 1 102 14 is_stmt 0 view .LVU17
  95 0020 194B     		ldr	r3, .L21
 101:src/sys/notes.c ****     uint32_t duree_noire = 60000/tempo;		// Attention il faut mettre (30 * 1000 ) / tempo
  96              		.loc 1 101 1 view .LVU18
  97 0022 0246     		mov	r2, r0
  98              		.loc 1 102 14 view .LVU19
  99 0024 1868     		ldr	r0, [r3]
 100              	.LVL4:
 101              		.loc 1 102 14 view .LVU20
 102 0026 4EF66023 		movw	r3, #60000
 103 002a B3FBF0F0 		udiv	r0, r3, r0
 104              	.LVL5:
 103:src/sys/notes.c ****     switch (RYTHME)
 105              		.loc 1 103 5 is_stmt 1 view .LVU21
 106 002e 092A     		cmp	r2, #9
 107 0030 29D8     		bhi	.L6
 108 0032 DFE802F0 		tbb	[pc, r2]
 109              	.L9:
 110 0036 05       		.byte	(.L18-.L9)/2
 111 0037 08       		.byte	(.L17-.L9)/2
 112 0038 0A       		.byte	(.L16-.L9)/2
 113 0039 0C       		.byte	(.L15-.L9)/2
 114 003a 06       		.byte	(.L19-.L9)/2
 115 003b 19       		.byte	(.L13-.L9)/2
 116 003c 20       		.byte	(.L12-.L9)/2
 117 003d 22       		.byte	(.L11-.L9)/2
 118 003e 24       		.byte	(.L10-.L9)/2
 119 003f 26       		.byte	(.L8-.L9)/2
 120              		.p2align 1
 121              	.L18:
 104:src/sys/notes.c ****     {
 105:src/sys/notes.c ****     case CARREE:
 106:src/sys/notes.c ****             delay(8 * duree_noire);
 122              		.loc 1 106 13 view .LVU22
 123 0040 C000     		lsls	r0, r0, #3
 124              	.LVL6:
 125              	.L19:
 107:src/sys/notes.c ****             break;
 108:src/sys/notes.c ****     case RONDE:
 109:src/sys/notes.c ****             delay(4 * duree_noire);
 110:src/sys/notes.c ****             break;
 111:src/sys/notes.c ****     case BLANCHE:
 112:src/sys/notes.c ****         delay(2 * duree_noire);
 113:src/sys/notes.c ****         break;
 114:src/sys/notes.c ****     case NOIRE_POINTEE:
 115:src/sys/notes.c ****         delay(1.5 * duree_noire);
 116:src/sys/notes.c ****         break;
 117:src/sys/notes.c ****     case NOIRE:
 118:src/sys/notes.c ****         delay(duree_noire);
 119:src/sys/notes.c ****         break;
 120:src/sys/notes.c ****     case CROCHE_POINTEE:
 121:src/sys/notes.c ****         delay(duree_noire * 0.75);
 122:src/sys/notes.c ****         break;
 123:src/sys/notes.c ****     case CROCHE:
 124:src/sys/notes.c ****         delay(duree_noire / 2);
 125:src/sys/notes.c ****         break;
 126:src/sys/notes.c ****     case DOUBLE_CROCHE:
 127:src/sys/notes.c ****     	delay(duree_noire / 4);
 128:src/sys/notes.c ****         break;
 129:src/sys/notes.c ****     case TRIPLE_CROCHE:
 130:src/sys/notes.c ****         delay(duree_noire / 8);
 131:src/sys/notes.c ****         break;
 132:src/sys/notes.c ****     case QUADRUPLE_CROCHE:
 133:src/sys/notes.c ****         delay(duree_noire / 16);
 126              		.loc 1 133 9 is_stmt 0 view .LVU23
 127 0042 FFF7FEBF 		b	delay
 128              	.LVL7:
 129              	.L17:
 109:src/sys/notes.c ****             break;
 130              		.loc 1 109 13 is_stmt 1 view .LVU24
 131 0046 8000     		lsls	r0, r0, #2
 132              	.LVL8:
 109:src/sys/notes.c ****             break;
 133              		.loc 1 109 13 is_stmt 0 view .LVU25
 134 0048 FBE7     		b	.L19
 135              	.LVL9:
 136              	.L16:
 112:src/sys/notes.c ****         break;
 137              		.loc 1 112 9 is_stmt 1 view .LVU26
 138 004a 4000     		lsls	r0, r0, #1
 139              	.LVL10:
 112:src/sys/notes.c ****         break;
 140              		.loc 1 112 9 is_stmt 0 view .LVU27
 141 004c F9E7     		b	.L19
 142              	.LVL11:
 143              	.L15:
 115:src/sys/notes.c ****         break;
 144              		.loc 1 115 9 is_stmt 1 view .LVU28
 115:src/sys/notes.c ****         break;
 145              		.loc 1 115 19 is_stmt 0 view .LVU29
 146 004e 07EE900A 		vmov	s15, r0	@ int
 147 0052 F8EEE77A 		vcvt.f32.s32	s15, s15
 148 0056 B7EE087A 		vmov.f32	s14, #1.5e+0
 149              	.L20:
 121:src/sys/notes.c ****         break;
 150              		.loc 1 121 27 view .LVU30
 151 005a 67EE877A 		vmul.f32	s15, s15, s14
 121:src/sys/notes.c ****         break;
 152              		.loc 1 121 9 view .LVU31
 153 005e FCEEE77A 		vcvt.u32.f32	s15, s15
 154 0062 17EE900A 		vmov	r0, s15	@ int
 155              	.LVL12:
 121:src/sys/notes.c ****         break;
 156              		.loc 1 121 9 view .LVU32
 157 0066 ECE7     		b	.L19
 158              	.LVL13:
 159              	.L13:
 121:src/sys/notes.c ****         break;
 160              		.loc 1 121 9 is_stmt 1 view .LVU33
 121:src/sys/notes.c ****         break;
 161              		.loc 1 121 27 is_stmt 0 view .LVU34
 162 0068 07EE900A 		vmov	s15, r0	@ int
 163 006c B6EE087A 		vmov.f32	s14, #7.5e-1
 164 0070 F8EEE77A 		vcvt.f32.s32	s15, s15
 165 0074 F1E7     		b	.L20
 166              	.L12:
 124:src/sys/notes.c ****         break;
 167              		.loc 1 124 9 is_stmt 1 view .LVU35
 168 0076 4008     		lsrs	r0, r0, #1
 169              	.LVL14:
 124:src/sys/notes.c ****         break;
 170              		.loc 1 124 9 is_stmt 0 view .LVU36
 171 0078 E3E7     		b	.L19
 172              	.LVL15:
 173              	.L11:
 127:src/sys/notes.c ****         break;
 174              		.loc 1 127 6 is_stmt 1 view .LVU37
 175 007a 8008     		lsrs	r0, r0, #2
 176              	.LVL16:
 127:src/sys/notes.c ****         break;
 177              		.loc 1 127 6 is_stmt 0 view .LVU38
 178 007c E1E7     		b	.L19
 179              	.LVL17:
 180              	.L10:
 130:src/sys/notes.c ****         break;
 181              		.loc 1 130 9 is_stmt 1 view .LVU39
 182 007e C008     		lsrs	r0, r0, #3
 183              	.LVL18:
 130:src/sys/notes.c ****         break;
 184              		.loc 1 130 9 is_stmt 0 view .LVU40
 185 0080 DFE7     		b	.L19
 186              	.LVL19:
 187              	.L8:
 188              		.loc 1 133 9 is_stmt 1 view .LVU41
 189 0082 0009     		lsrs	r0, r0, #4
 190              	.LVL20:
 191              		.loc 1 133 9 is_stmt 0 view .LVU42
 192 0084 DDE7     		b	.L19
 193              	.LVL21:
 194              	.L6:
 134:src/sys/notes.c ****         break;
 135:src/sys/notes.c ****     default:
 136:src/sys/notes.c ****         break;
 137:src/sys/notes.c ****     }
 138:src/sys/notes.c **** }
 195              		.loc 1 138 1 view .LVU43
 196 0086 7047     		bx	lr
 197              	.L22:
 198              		.align	2
 199              	.L21:
 200 0088 00000000 		.word	.LANCHOR0
 201              		.cfi_endproc
 202              	.LFE401:
 203              		.size	delay_par_duree, .-delay_par_duree
 204              		.align	1
 205              		.global	eteindre_son
 206              		.syntax unified
 207              		.thumb
 208              		.thumb_func
 209              		.type	eteindre_son, %function
 210              	eteindre_son:
 211              	.LFB402:
 139:src/sys/notes.c **** 
 140:src/sys/notes.c **** extern void eteindre_son()
 141:src/sys/notes.c **** {
 212              		.loc 1 141 1 is_stmt 1 view -0
 213              		.cfi_startproc
 214              		@ args = 0, pretend = 0, frame = 0
 215              		@ frame_needed = 0, uses_anonymous_args = 0
 216              		@ link register save eliminated.
 142:src/sys/notes.c ****     // On éteint le son
 143:src/sys/notes.c ****     TIM2.CCR2 = 0;
 217              		.loc 1 143 5 view .LVU45
 218              		.loc 1 143 15 is_stmt 0 view .LVU46
 219 008c 034B     		ldr	r3, .L24
 220 008e 0022     		movs	r2, #0
 221 0090 9A63     		str	r2, [r3, #56]
 144:src/sys/notes.c ****     TIM2.EGR |= 1;
 222              		.loc 1 144 5 is_stmt 1 view .LVU47
 223              		.loc 1 144 9 is_stmt 0 view .LVU48
 224 0092 5A69     		ldr	r2, [r3, #20]
 225              		.loc 1 144 14 view .LVU49
 226 0094 42F00102 		orr	r2, r2, #1
 227 0098 5A61     		str	r2, [r3, #20]
 145:src/sys/notes.c **** }
 228              		.loc 1 145 1 view .LVU50
 229 009a 7047     		bx	lr
 230              	.L25:
 231              		.align	2
 232              	.L24:
 233 009c 00000000 		.word	TIM2
 234              		.cfi_endproc
 235              	.LFE402:
 236              		.size	eteindre_son, .-eteindre_son
 237              		.align	1
 238              		.global	pause
 239              		.syntax unified
 240              		.thumb
 241              		.thumb_func
 242              		.type	pause, %function
 243              	pause:
 244              	.LVL22:
 245              	.LFB403:
 146:src/sys/notes.c **** 
 147:src/sys/notes.c **** extern void pause(silence SILENCE)
 148:src/sys/notes.c **** {
 246              		.loc 1 148 1 is_stmt 1 view -0
 247              		.cfi_startproc
 248              		@ args = 0, pretend = 0, frame = 0
 249              		@ frame_needed = 0, uses_anonymous_args = 0
 149:src/sys/notes.c ****     uint32_t duree_noire = 60000/tempo;		// Attention il faut mettre (30 * 1000 ) / tempo
 250              		.loc 1 149 5 view .LVU52
 148:src/sys/notes.c ****     uint32_t duree_noire = 60000/tempo;		// Attention il faut mettre (30 * 1000 ) / tempo
 251              		.loc 1 148 1 is_stmt 0 view .LVU53
 252 00a0 08B5     		push	{r3, lr}
 253              		.cfi_def_cfa_offset 8
 254              		.cfi_offset 3, -8
 255              		.cfi_offset 14, -4
 256              		.loc 1 149 14 view .LVU54
 257 00a2 194B     		ldr	r3, .L38
 148:src/sys/notes.c ****     uint32_t duree_noire = 60000/tempo;		// Attention il faut mettre (30 * 1000 ) / tempo
 258              		.loc 1 148 1 view .LVU55
 259 00a4 0246     		mov	r2, r0
 260              		.loc 1 149 14 view .LVU56
 261 00a6 1868     		ldr	r0, [r3]
 262              	.LVL23:
 263              		.loc 1 149 14 view .LVU57
 264 00a8 4EF66023 		movw	r3, #60000
 265 00ac B3FBF0F0 		udiv	r0, r3, r0
 266              	.LVL24:
 150:src/sys/notes.c ****     switch (SILENCE)
 267              		.loc 1 150 5 is_stmt 1 view .LVU58
 268 00b0 072A     		cmp	r2, #7
 269 00b2 27D8     		bhi	.L26
 270 00b4 DFE802F0 		tbb	[pc, r2]
 271              	.L29:
 272 00b8 04       		.byte	(.L36-.L29)/2
 273 00b9 0B       		.byte	(.L35-.L29)/2
 274 00ba 0F       		.byte	(.L34-.L29)/2
 275 00bb 13       		.byte	(.L33-.L29)/2
 276 00bc 16       		.byte	(.L32-.L29)/2
 277 00bd 1A       		.byte	(.L31-.L29)/2
 278 00be 1E       		.byte	(.L30-.L29)/2
 279 00bf 22       		.byte	(.L28-.L29)/2
 280              		.p2align 1
 281              	.L36:
 151:src/sys/notes.c ****     {
 152:src/sys/notes.c ****     case BATON_DE_PAUSE:
 153:src/sys/notes.c ****     	eteindre_son();
 282              		.loc 1 153 6 view .LVU59
 283 00c0 FFF7FEFF 		bl	eteindre_son
 284              	.LVL25:
 154:src/sys/notes.c ****         delay(8 * duree_noire);
 285              		.loc 1 154 9 view .LVU60
 286 00c4 C000     		lsls	r0, r0, #3
 287              	.LVL26:
 288              	.L37:
 155:src/sys/notes.c ****         break;
 156:src/sys/notes.c ****     case PAUSE:
 157:src/sys/notes.c ****     	eteindre_son();
 158:src/sys/notes.c ****         delay(4 * duree_noire);
 159:src/sys/notes.c ****         break;
 160:src/sys/notes.c ****     case DEMI_PAUSE:
 161:src/sys/notes.c ****     	eteindre_son();
 162:src/sys/notes.c ****         delay(2 * duree_noire);
 163:src/sys/notes.c ****         break;
 164:src/sys/notes.c ****     case SOUPIR:
 165:src/sys/notes.c ****     	eteindre_son();
 166:src/sys/notes.c ****         delay(duree_noire);
 167:src/sys/notes.c ****         break;
 168:src/sys/notes.c ****     case DEMI_SOUPIR:
 169:src/sys/notes.c ****     	eteindre_son();
 170:src/sys/notes.c ****         delay(duree_noire / 2);
 171:src/sys/notes.c ****         break;
 172:src/sys/notes.c ****     case QUART_DE_SOUPIR:
 173:src/sys/notes.c ****     	eteindre_son();
 174:src/sys/notes.c ****     	delay(duree_noire / 4);
 175:src/sys/notes.c ****         break;
 176:src/sys/notes.c ****     case HUITIEME_DE_SOUPIR:
 177:src/sys/notes.c ****     	eteindre_son();
 178:src/sys/notes.c ****         delay(duree_noire / 8);
 179:src/sys/notes.c ****         break;
 180:src/sys/notes.c ****     case SEIZIEME_DE_SOUPIR:
 181:src/sys/notes.c ****     	eteindre_son();
 182:src/sys/notes.c ****         delay(duree_noire / 16);
 183:src/sys/notes.c ****         break;
 184:src/sys/notes.c ****     default:
 185:src/sys/notes.c ****         break;
 186:src/sys/notes.c ****     }
 187:src/sys/notes.c **** }
 289              		.loc 1 187 1 is_stmt 0 view .LVU61
 290 00c6 BDE80840 		pop	{r3, lr}
 291              		.cfi_remember_state
 292              		.cfi_restore 14
 293              		.cfi_restore 3
 294              		.cfi_def_cfa_offset 0
 182:src/sys/notes.c ****         break;
 295              		.loc 1 182 9 view .LVU62
 296 00ca FFF7FEBF 		b	delay
 297              	.LVL27:
 298              	.L35:
 299              		.cfi_restore_state
 157:src/sys/notes.c ****         delay(4 * duree_noire);
 300              		.loc 1 157 6 is_stmt 1 view .LVU63
 301 00ce FFF7FEFF 		bl	eteindre_son
 302              	.LVL28:
 158:src/sys/notes.c ****         break;
 303              		.loc 1 158 9 view .LVU64
 304 00d2 8000     		lsls	r0, r0, #2
 305              	.LVL29:
 158:src/sys/notes.c ****         break;
 306              		.loc 1 158 9 is_stmt 0 view .LVU65
 307 00d4 F7E7     		b	.L37
 308              	.LVL30:
 309              	.L34:
 161:src/sys/notes.c ****         delay(2 * duree_noire);
 310              		.loc 1 161 6 is_stmt 1 view .LVU66
 311 00d6 FFF7FEFF 		bl	eteindre_son
 312              	.LVL31:
 162:src/sys/notes.c ****         break;
 313              		.loc 1 162 9 view .LVU67
 314 00da 4000     		lsls	r0, r0, #1
 315              	.LVL32:
 162:src/sys/notes.c ****         break;
 316              		.loc 1 162 9 is_stmt 0 view .LVU68
 317 00dc F3E7     		b	.L37
 318              	.LVL33:
 319              	.L33:
 165:src/sys/notes.c ****         delay(duree_noire);
 320              		.loc 1 165 6 is_stmt 1 view .LVU69
 321 00de FFF7FEFF 		bl	eteindre_son
 322              	.LVL34:
 166:src/sys/notes.c ****         break;
 323              		.loc 1 166 9 view .LVU70
 324 00e2 F0E7     		b	.L37
 325              	.L32:
 169:src/sys/notes.c ****         delay(duree_noire / 2);
 326              		.loc 1 169 6 view .LVU71
 327 00e4 FFF7FEFF 		bl	eteindre_son
 328              	.LVL35:
 170:src/sys/notes.c ****         break;
 329              		.loc 1 170 9 view .LVU72
 330 00e8 4008     		lsrs	r0, r0, #1
 331              	.LVL36:
 170:src/sys/notes.c ****         break;
 332              		.loc 1 170 9 is_stmt 0 view .LVU73
 333 00ea ECE7     		b	.L37
 334              	.LVL37:
 335              	.L31:
 173:src/sys/notes.c ****     	delay(duree_noire / 4);
 336              		.loc 1 173 6 is_stmt 1 view .LVU74
 337 00ec FFF7FEFF 		bl	eteindre_son
 338              	.LVL38:
 174:src/sys/notes.c ****         break;
 339              		.loc 1 174 6 view .LVU75
 340 00f0 8008     		lsrs	r0, r0, #2
 341              	.LVL39:
 174:src/sys/notes.c ****         break;
 342              		.loc 1 174 6 is_stmt 0 view .LVU76
 343 00f2 E8E7     		b	.L37
 344              	.LVL40:
 345              	.L30:
 177:src/sys/notes.c ****         delay(duree_noire / 8);
 346              		.loc 1 177 6 is_stmt 1 view .LVU77
 347 00f4 FFF7FEFF 		bl	eteindre_son
 348              	.LVL41:
 178:src/sys/notes.c ****         break;
 349              		.loc 1 178 9 view .LVU78
 350 00f8 C008     		lsrs	r0, r0, #3
 351              	.LVL42:
 178:src/sys/notes.c ****         break;
 352              		.loc 1 178 9 is_stmt 0 view .LVU79
 353 00fa E4E7     		b	.L37
 354              	.LVL43:
 355              	.L28:
 181:src/sys/notes.c ****         delay(duree_noire / 16);
 356              		.loc 1 181 6 is_stmt 1 view .LVU80
 357 00fc FFF7FEFF 		bl	eteindre_son
 358              	.LVL44:
 182:src/sys/notes.c ****         break;
 359              		.loc 1 182 9 view .LVU81
 360 0100 0009     		lsrs	r0, r0, #4
 361              	.LVL45:
 182:src/sys/notes.c ****         break;
 362              		.loc 1 182 9 is_stmt 0 view .LVU82
 363 0102 E0E7     		b	.L37
 364              	.LVL46:
 365              	.L26:
 366              		.loc 1 187 1 view .LVU83
 367 0104 08BD     		pop	{r3, pc}
 368              	.L39:
 369 0106 00BF     		.align	2
 370              	.L38:
 371 0108 00000000 		.word	.LANCHOR0
 372              		.cfi_endproc
 373              	.LFE403:
 374              		.size	pause, .-pause
 375              		.section	.rodata.str1.1,"aMS",%progbits,1
 376              	.LC0:
 377 0000 25346C64 		.ascii	"%4ld\015\000"
 377      0D00
 378              		.text
 379              		.align	1
 380              		.global	volume
 381              		.syntax unified
 382              		.thumb
 383              		.thumb_func
 384              		.type	volume, %function
 385              	volume:
 386              	.LVL47:
 387              	.LFB404:
 188:src/sys/notes.c **** 
 189:src/sys/notes.c **** uint32_t volume(uint32_t arr)
 190:src/sys/notes.c **** {
 388              		.loc 1 190 1 is_stmt 1 view -0
 389              		.cfi_startproc
 390              		@ args = 0, pretend = 0, frame = 0
 391              		@ frame_needed = 0, uses_anonymous_args = 0
 191:src/sys/notes.c ****     // 1 et 4090
 192:src/sys/notes.c ****     // uint32_t valeur_de_potentiometre = 4095 -  mesure_potentiometre();
 193:src/sys/notes.c **** 	uint32_t diviseur;
 392              		.loc 1 193 2 view .LVU85
 194:src/sys/notes.c ****     printf("%4ld\r", mesure_potentiometre());
 393              		.loc 1 194 5 view .LVU86
 190:src/sys/notes.c ****     // 1 et 4090
 394              		.loc 1 190 1 is_stmt 0 view .LVU87
 395 010c 38B5     		push	{r3, r4, r5, lr}
 396              		.cfi_def_cfa_offset 16
 397              		.cfi_offset 3, -16
 398              		.cfi_offset 4, -12
 399              		.cfi_offset 5, -8
 400              		.cfi_offset 14, -4
 190:src/sys/notes.c ****     // 1 et 4090
 401              		.loc 1 190 1 view .LVU88
 402 010e 0546     		mov	r5, r0
 403              		.loc 1 194 5 view .LVU89
 404 0110 FFF7FEFF 		bl	mesure_potentiometre
 405              	.LVL48:
 406              		.loc 1 194 5 view .LVU90
 407 0114 0146     		mov	r1, r0
 408              		.loc 1 194 5 discriminator 1 view .LVU91
 409 0116 2B48     		ldr	r0, .L56
 410 0118 FFF7FEFF 		bl	printf
 411              	.LVL49:
 195:src/sys/notes.c ****     if (mesure_potentiometre() <= 3000)
 412              		.loc 1 195 5 is_stmt 1 view .LVU92
 413              		.loc 1 195 9 is_stmt 0 view .LVU93
 414 011c FFF7FEFF 		bl	mesure_potentiometre
 415              	.LVL50:
 196:src/sys/notes.c ****     {
 197:src/sys/notes.c ****     	diviseur = 1000;
 416              		.loc 1 197 6 is_stmt 1 view .LVU94
 198:src/sys/notes.c ****     }
 199:src/sys/notes.c ****     if ((mesure_potentiometre() > 3000) && (mesure_potentiometre() < 3500))
 417              		.loc 1 199 5 view .LVU95
 418              		.loc 1 199 10 is_stmt 0 view .LVU96
 419 0120 FFF7FEFF 		bl	mesure_potentiometre
 420              	.LVL51:
 421              		.loc 1 199 8 discriminator 1 view .LVU97
 422 0124 40F6B833 		movw	r3, #3000
 423 0128 9842     		cmp	r0, r3
 424 012a 07D9     		bls	.L42
 425              		.loc 1 199 45 discriminator 1 view .LVU98
 426 012c FFF7FEFF 		bl	mesure_potentiometre
 427              	.LVL52:
 428              		.loc 1 199 41 discriminator 1 view .LVU99
 429 0130 40F6AB53 		movw	r3, #3499
 430 0134 9842     		cmp	r0, r3
 431 0136 01D8     		bhi	.L42
 200:src/sys/notes.c ****     {
 201:src/sys/notes.c ****     	diviseur = 1000 - (mesure_potentiometre() - 3000) * (500/3500);
 432              		.loc 1 201 6 is_stmt 1 view .LVU100
 433              		.loc 1 201 25 is_stmt 0 view .LVU101
 434 0138 FFF7FEFF 		bl	mesure_potentiometre
 435              	.LVL53:
 436              	.L42:
 202:src/sys/notes.c ****     }
 203:src/sys/notes.c ****     if ((mesure_potentiometre() > 3500) && (mesure_potentiometre() < 3700))
 437              		.loc 1 203 5 is_stmt 1 view .LVU102
 438              		.loc 1 203 10 is_stmt 0 view .LVU103
 439 013c FFF7FEFF 		bl	mesure_potentiometre
 440              	.LVL54:
 441              		.loc 1 203 8 discriminator 1 view .LVU104
 442 0140 40F6AC53 		movw	r3, #3500
 443 0144 9842     		cmp	r0, r3
 444 0146 31D8     		bhi	.L44
 445              	.L46:
 190:src/sys/notes.c ****     // 1 et 4090
 446              		.loc 1 190 1 view .LVU105
 447 0148 4FF47A74 		mov	r4, #1000
 448              	.LVL55:
 449              	.L45:
 204:src/sys/notes.c ****     {
 205:src/sys/notes.c ****     	diviseur = 500 - (mesure_potentiometre() - 3500) * (300/200);
 206:src/sys/notes.c ****     }
 207:src/sys/notes.c ****     if ((mesure_potentiometre() > 3700) && (mesure_potentiometre() < 3850))
 450              		.loc 1 207 5 is_stmt 1 view .LVU106
 451              		.loc 1 207 10 is_stmt 0 view .LVU107
 452 014c FFF7FEFF 		bl	mesure_potentiometre
 453              	.LVL56:
 454              		.loc 1 207 8 discriminator 1 view .LVU108
 455 0150 40F67463 		movw	r3, #3700
 456 0154 9842     		cmp	r0, r3
 457 0156 08D9     		bls	.L49
 458              		.loc 1 207 45 discriminator 1 view .LVU109
 459 0158 FFF7FEFF 		bl	mesure_potentiometre
 460              	.LVL57:
 461              		.loc 1 207 41 discriminator 1 view .LVU110
 462 015c 40F60973 		movw	r3, #3849
 463 0160 9842     		cmp	r0, r3
 464 0162 02D8     		bhi	.L49
 208:src/sys/notes.c ****     {
 209:src/sys/notes.c ****     	diviseur = 200 - (mesure_potentiometre() - 3700) * (100/150);
 465              		.loc 1 209 6 is_stmt 1 view .LVU111
 466              		.loc 1 209 24 is_stmt 0 view .LVU112
 467 0164 FFF7FEFF 		bl	mesure_potentiometre
 468              	.LVL58:
 469              		.loc 1 209 15 discriminator 1 view .LVU113
 470 0168 C824     		movs	r4, #200
 471              	.LVL59:
 472              	.L49:
 210:src/sys/notes.c ****     }
 211:src/sys/notes.c ****     if ((mesure_potentiometre() > 3850) && (mesure_potentiometre() < 3950))
 473              		.loc 1 211 5 is_stmt 1 view .LVU114
 474              		.loc 1 211 10 is_stmt 0 view .LVU115
 475 016a FFF7FEFF 		bl	mesure_potentiometre
 476              	.LVL60:
 477              		.loc 1 211 8 discriminator 1 view .LVU116
 478 016e 40F60A73 		movw	r3, #3850
 479 0172 9842     		cmp	r0, r3
 480 0174 08D9     		bls	.L52
 481              		.loc 1 211 45 discriminator 1 view .LVU117
 482 0176 FFF7FEFF 		bl	mesure_potentiometre
 483              	.LVL61:
 484              		.loc 1 211 41 discriminator 1 view .LVU118
 485 017a 40F66D73 		movw	r3, #3949
 486 017e 9842     		cmp	r0, r3
 487 0180 02D8     		bhi	.L52
 212:src/sys/notes.c ****     {
 213:src/sys/notes.c ****     	diviseur = 100 - (mesure_potentiometre() - 3850) * (70/100);
 488              		.loc 1 213 6 is_stmt 1 view .LVU119
 489              		.loc 1 213 24 is_stmt 0 view .LVU120
 490 0182 FFF7FEFF 		bl	mesure_potentiometre
 491              	.LVL62:
 492              		.loc 1 213 15 discriminator 1 view .LVU121
 493 0186 6424     		movs	r4, #100
 494              	.LVL63:
 495              	.L52:
 214:src/sys/notes.c ****     }
 215:src/sys/notes.c ****     if ((mesure_potentiometre() > 3950) && (mesure_potentiometre() < 4095))
 496              		.loc 1 215 5 is_stmt 1 view .LVU122
 497              		.loc 1 215 10 is_stmt 0 view .LVU123
 498 0188 FFF7FEFF 		bl	mesure_potentiometre
 499              	.LVL64:
 500              		.loc 1 215 8 discriminator 1 view .LVU124
 501 018c 40F66E73 		movw	r3, #3950
 502 0190 9842     		cmp	r0, r3
 503 0192 08D9     		bls	.L55
 504              		.loc 1 215 45 discriminator 1 view .LVU125
 505 0194 FFF7FEFF 		bl	mesure_potentiometre
 506              	.LVL65:
 507              		.loc 1 215 41 discriminator 1 view .LVU126
 508 0198 40F6FE73 		movw	r3, #4094
 509 019c 9842     		cmp	r0, r3
 510 019e 02D8     		bhi	.L55
 216:src/sys/notes.c ****     {
 217:src/sys/notes.c ****     	diviseur = 30 - (mesure_potentiometre() - 3950) * (28/145);
 511              		.loc 1 217 6 is_stmt 1 view .LVU127
 512              		.loc 1 217 23 is_stmt 0 view .LVU128
 513 01a0 FFF7FEFF 		bl	mesure_potentiometre
 514              	.LVL66:
 515              		.loc 1 217 15 discriminator 1 view .LVU129
 516 01a4 1E24     		movs	r4, #30
 517              	.LVL67:
 518              	.L55:
 218:src/sys/notes.c ****     }
 219:src/sys/notes.c ****     return arr / diviseur;
 519              		.loc 1 219 5 is_stmt 1 view .LVU130
 220:src/sys/notes.c **** }
 520              		.loc 1 220 1 is_stmt 0 view .LVU131
 521 01a6 B5FBF4F0 		udiv	r0, r5, r4
 522 01aa 38BD     		pop	{r3, r4, r5, pc}
 523              	.LVL68:
 524              	.L44:
 203:src/sys/notes.c ****     {
 525              		.loc 1 203 45 discriminator 1 view .LVU132
 526 01ac FFF7FEFF 		bl	mesure_potentiometre
 527              	.LVL69:
 203:src/sys/notes.c ****     {
 528              		.loc 1 203 41 discriminator 1 view .LVU133
 529 01b0 40F67363 		movw	r3, #3699
 530 01b4 9842     		cmp	r0, r3
 531 01b6 C7D8     		bhi	.L46
 205:src/sys/notes.c ****     }
 532              		.loc 1 205 6 is_stmt 1 view .LVU134
 205:src/sys/notes.c ****     }
 533              		.loc 1 205 24 is_stmt 0 view .LVU135
 534 01b8 FFF7FEFF 		bl	mesure_potentiometre
 535              	.LVL70:
 205:src/sys/notes.c ****     }
 536              		.loc 1 205 15 discriminator 1 view .LVU136
 537 01bc C0F57A64 		rsb	r4, r0, #4000
 538              	.LVL71:
 205:src/sys/notes.c ****     }
 539              		.loc 1 205 15 discriminator 1 view .LVU137
 540 01c0 C4E7     		b	.L45
 541              	.L57:
 542 01c2 00BF     		.align	2
 543              	.L56:
 544 01c4 00000000 		.word	.LC0
 545              		.cfi_endproc
 546              	.LFE404:
 547              		.size	volume, .-volume
 548              		.align	1
 549              		.global	led_red_on
 550              		.syntax unified
 551              		.thumb
 552              		.thumb_func
 553              		.type	led_red_on, %function
 554              	led_red_on:
 555              	.LFB406:
 221:src/sys/notes.c **** 
 222:src/sys/notes.c **** extern void play_note(notes Note, rythme RYTHME)
 223:src/sys/notes.c **** {
 224:src/sys/notes.c ****     TIM2.CNT = 0;
 225:src/sys/notes.c ****     TIM2.ARR = notes_arr[Note];
 226:src/sys/notes.c ****     TIM2.CCR2 = volume(TIM2.ARR);
 227:src/sys/notes.c ****     TIM2.EGR |= 1;   // Mise à jour immediate
 228:src/sys/notes.c ****                      // Les valeurs tampons sont mis dans les vrais variables
 229:src/sys/notes.c ****                      // TIM2.ARR n'est pas la vrai valeur
 230:src/sys/notes.c ****     TIM2.CR1 |= 1;  // CEN
 231:src/sys/notes.c ****     color_leds(RYTHME);
 232:src/sys/notes.c ****     delay_par_duree(RYTHME);
 233:src/sys/notes.c ****     eteindre_son();
 234:src/sys/notes.c ****     leds_off();
 235:src/sys/notes.c ****     delay(10);
 236:src/sys/notes.c **** }
 237:src/sys/notes.c **** 
 238:src/sys/notes.c **** extern void led_red_on()
 239:src/sys/notes.c **** {
 556              		.loc 1 239 1 is_stmt 1 view -0
 557              		.cfi_startproc
 558              		@ args = 0, pretend = 0, frame = 0
 559              		@ frame_needed = 0, uses_anonymous_args = 0
 560              		@ link register save eliminated.
 240:src/sys/notes.c **** 	GPIOA.ODR |= (1<<8);
 561              		.loc 1 240 2 view .LVU139
 562              		.loc 1 240 7 is_stmt 0 view .LVU140
 563 01c8 024A     		ldr	r2, .L59
 564 01ca 5369     		ldr	r3, [r2, #20]
 565              		.loc 1 240 12 view .LVU141
 566 01cc 43F48073 		orr	r3, r3, #256
 567 01d0 5361     		str	r3, [r2, #20]
 241:src/sys/notes.c **** }
 568              		.loc 1 241 1 view .LVU142
 569 01d2 7047     		bx	lr
 570              	.L60:
 571              		.align	2
 572              	.L59:
 573 01d4 00000000 		.word	GPIOA
 574              		.cfi_endproc
 575              	.LFE406:
 576              		.size	led_red_on, .-led_red_on
 577              		.align	1
 578              		.global	led_green_on
 579              		.syntax unified
 580              		.thumb
 581              		.thumb_func
 582              		.type	led_green_on, %function
 583              	led_green_on:
 584              	.LFB407:
 242:src/sys/notes.c **** 
 243:src/sys/notes.c **** extern void led_green_on()
 244:src/sys/notes.c **** {
 585              		.loc 1 244 1 is_stmt 1 view -0
 586              		.cfi_startproc
 587              		@ args = 0, pretend = 0, frame = 0
 588              		@ frame_needed = 0, uses_anonymous_args = 0
 589              		@ link register save eliminated.
 245:src/sys/notes.c **** 	GPIOA.ODR |= (1<<9);
 590              		.loc 1 245 2 view .LVU144
 591              		.loc 1 245 7 is_stmt 0 view .LVU145
 592 01d8 024A     		ldr	r2, .L62
 593 01da 5369     		ldr	r3, [r2, #20]
 594              		.loc 1 245 12 view .LVU146
 595 01dc 43F40073 		orr	r3, r3, #512
 596 01e0 5361     		str	r3, [r2, #20]
 246:src/sys/notes.c **** }
 597              		.loc 1 246 1 view .LVU147
 598 01e2 7047     		bx	lr
 599              	.L63:
 600              		.align	2
 601              	.L62:
 602 01e4 00000000 		.word	GPIOA
 603              		.cfi_endproc
 604              	.LFE407:
 605              		.size	led_green_on, .-led_green_on
 606              		.align	1
 607              		.global	led_blue_on
 608              		.syntax unified
 609              		.thumb
 610              		.thumb_func
 611              		.type	led_blue_on, %function
 612              	led_blue_on:
 613              	.LFB408:
 247:src/sys/notes.c **** 
 248:src/sys/notes.c **** extern void led_blue_on()
 249:src/sys/notes.c **** {
 614              		.loc 1 249 1 is_stmt 1 view -0
 615              		.cfi_startproc
 616              		@ args = 0, pretend = 0, frame = 0
 617              		@ frame_needed = 0, uses_anonymous_args = 0
 618              		@ link register save eliminated.
 250:src/sys/notes.c **** 	GPIOA.ODR |= (1<<10);
 619              		.loc 1 250 2 view .LVU149
 620              		.loc 1 250 7 is_stmt 0 view .LVU150
 621 01e8 024A     		ldr	r2, .L65
 622 01ea 5369     		ldr	r3, [r2, #20]
 623              		.loc 1 250 12 view .LVU151
 624 01ec 43F48063 		orr	r3, r3, #1024
 625 01f0 5361     		str	r3, [r2, #20]
 251:src/sys/notes.c **** }
 626              		.loc 1 251 1 view .LVU152
 627 01f2 7047     		bx	lr
 628              	.L66:
 629              		.align	2
 630              	.L65:
 631 01f4 00000000 		.word	GPIOA
 632              		.cfi_endproc
 633              	.LFE408:
 634              		.size	led_blue_on, .-led_blue_on
 635              		.align	1
 636              		.global	leds_off
 637              		.syntax unified
 638              		.thumb
 639              		.thumb_func
 640              		.type	leds_off, %function
 641              	leds_off:
 642              	.LFB409:
 252:src/sys/notes.c **** 
 253:src/sys/notes.c **** extern void leds_off()
 254:src/sys/notes.c **** {
 643              		.loc 1 254 1 is_stmt 1 view -0
 644              		.cfi_startproc
 645              		@ args = 0, pretend = 0, frame = 0
 646              		@ frame_needed = 0, uses_anonymous_args = 0
 647              		@ link register save eliminated.
 255:src/sys/notes.c **** 	GPIOA.ODR &= ~(7<<8);
 648              		.loc 1 255 2 view .LVU154
 649              		.loc 1 255 7 is_stmt 0 view .LVU155
 650 01f8 024A     		ldr	r2, .L68
 651 01fa 5369     		ldr	r3, [r2, #20]
 652              		.loc 1 255 12 view .LVU156
 653 01fc 23F4E063 		bic	r3, r3, #1792
 654 0200 5361     		str	r3, [r2, #20]
 256:src/sys/notes.c **** }
 655              		.loc 1 256 1 view .LVU157
 656 0202 7047     		bx	lr
 657              	.L69:
 658              		.align	2
 659              	.L68:
 660 0204 00000000 		.word	GPIOA
 661              		.cfi_endproc
 662              	.LFE409:
 663              		.size	leds_off, .-leds_off
 664              		.align	1
 665              		.global	color_leds
 666              		.syntax unified
 667              		.thumb
 668              		.thumb_func
 669              		.type	color_leds, %function
 670              	color_leds:
 671              	.LVL72:
 672              	.LFB410:
 257:src/sys/notes.c **** 
 258:src/sys/notes.c **** extern void color_leds(rythme RYTHME)
 259:src/sys/notes.c **** {
 673              		.loc 1 259 1 is_stmt 1 view -0
 674              		.cfi_startproc
 675              		@ args = 0, pretend = 0, frame = 0
 676              		@ frame_needed = 0, uses_anonymous_args = 0
 677              		@ link register save eliminated.
 260:src/sys/notes.c **** 	switch(RYTHME)
 678              		.loc 1 260 2 view .LVU159
 679 0208 0528     		cmp	r0, #5
 680 020a 03D8     		bhi	.L71
 681 020c 0228     		cmp	r0, #2
 682 020e 05D9     		bls	.L76
 261:src/sys/notes.c **** 	{
 262:src/sys/notes.c **** 	case CARREE:
 263:src/sys/notes.c **** 		led_blue_on();
 264:src/sys/notes.c **** 		break;
 265:src/sys/notes.c **** 	case RONDE:
 266:src/sys/notes.c **** 		led_blue_on();
 267:src/sys/notes.c **** 		break;
 268:src/sys/notes.c **** 	case BLANCHE:
 269:src/sys/notes.c **** 		led_blue_on();
 270:src/sys/notes.c **** 		break;
 271:src/sys/notes.c **** 	case NOIRE_POINTEE:
 272:src/sys/notes.c **** 		led_green_on();
 683              		.loc 1 272 3 view .LVU160
 684 0210 FFF7FEBF 		b	led_green_on
 685              	.LVL73:
 686              	.L71:
 260:src/sys/notes.c **** 	switch(RYTHME)
 687              		.loc 1 260 2 is_stmt 0 view .LVU161
 688 0214 0638     		subs	r0, r0, #6
 689              	.LVL74:
 260:src/sys/notes.c **** 	switch(RYTHME)
 690              		.loc 1 260 2 view .LVU162
 691 0216 0328     		cmp	r0, #3
 692 0218 02D9     		bls	.L77
 693 021a 7047     		bx	lr
 694              	.LVL75:
 695              	.L76:
 263:src/sys/notes.c **** 		break;
 696              		.loc 1 263 3 is_stmt 1 view .LVU163
 697 021c FFF7FEBF 		b	led_blue_on
 698              	.LVL76:
 699              	.L77:
 273:src/sys/notes.c **** 		break;
 274:src/sys/notes.c **** 	case NOIRE:
 275:src/sys/notes.c **** 		led_green_on();
 276:src/sys/notes.c **** 		break;
 277:src/sys/notes.c **** 	case CROCHE_POINTEE:
 278:src/sys/notes.c **** 		led_green_on();
 279:src/sys/notes.c **** 		break;
 280:src/sys/notes.c **** 	case CROCHE:
 281:src/sys/notes.c **** 		led_red_on();
 700              		.loc 1 281 3 view .LVU164
 701 0220 FFF7FEBF 		b	led_red_on
 702              	.LVL77:
 703              		.cfi_endproc
 704              	.LFE410:
 705              		.size	color_leds, .-color_leds
 706              		.align	1
 707              		.global	play_note
 708              		.syntax unified
 709              		.thumb
 710              		.thumb_func
 711              		.type	play_note, %function
 712              	play_note:
 713              	.LVL78:
 714              	.LFB405:
 223:src/sys/notes.c ****     TIM2.CNT = 0;
 715              		.loc 1 223 1 view -0
 716              		.cfi_startproc
 717              		@ args = 0, pretend = 0, frame = 0
 718              		@ frame_needed = 0, uses_anonymous_args = 0
 224:src/sys/notes.c ****     TIM2.ARR = notes_arr[Note];
 719              		.loc 1 224 5 view .LVU166
 223:src/sys/notes.c ****     TIM2.CNT = 0;
 720              		.loc 1 223 1 is_stmt 0 view .LVU167
 721 0224 38B5     		push	{r3, r4, r5, lr}
 722              		.cfi_def_cfa_offset 16
 723              		.cfi_offset 3, -16
 724              		.cfi_offset 4, -12
 725              		.cfi_offset 5, -8
 726              		.cfi_offset 14, -4
 224:src/sys/notes.c ****     TIM2.ARR = notes_arr[Note];
 727              		.loc 1 224 14 view .LVU168
 728 0226 114C     		ldr	r4, .L79
 729 0228 0023     		movs	r3, #0
 730 022a 6362     		str	r3, [r4, #36]
 225:src/sys/notes.c ****     TIM2.CCR2 = volume(TIM2.ARR);
 731              		.loc 1 225 5 is_stmt 1 view .LVU169
 225:src/sys/notes.c ****     TIM2.CCR2 = volume(TIM2.ARR);
 732              		.loc 1 225 25 is_stmt 0 view .LVU170
 733 022c 104B     		ldr	r3, .L79+4
 734 022e 53F82030 		ldr	r3, [r3, r0, lsl #2]
 225:src/sys/notes.c ****     TIM2.CCR2 = volume(TIM2.ARR);
 735              		.loc 1 225 14 view .LVU171
 736 0232 E362     		str	r3, [r4, #44]
 226:src/sys/notes.c ****     TIM2.EGR |= 1;   // Mise à jour immediate
 737              		.loc 1 226 5 is_stmt 1 view .LVU172
 226:src/sys/notes.c ****     TIM2.EGR |= 1;   // Mise à jour immediate
 738              		.loc 1 226 28 is_stmt 0 view .LVU173
 739 0234 E06A     		ldr	r0, [r4, #44]
 740              	.LVL79:
 223:src/sys/notes.c ****     TIM2.CNT = 0;
 741              		.loc 1 223 1 view .LVU174
 742 0236 0D46     		mov	r5, r1
 226:src/sys/notes.c ****     TIM2.EGR |= 1;   // Mise à jour immediate
 743              		.loc 1 226 17 view .LVU175
 744 0238 FFF7FEFF 		bl	volume
 745              	.LVL80:
 226:src/sys/notes.c ****     TIM2.EGR |= 1;   // Mise à jour immediate
 746              		.loc 1 226 15 discriminator 1 view .LVU176
 747 023c A063     		str	r0, [r4, #56]
 227:src/sys/notes.c ****                      // Les valeurs tampons sont mis dans les vrais variables
 748              		.loc 1 227 5 is_stmt 1 view .LVU177
 227:src/sys/notes.c ****                      // Les valeurs tampons sont mis dans les vrais variables
 749              		.loc 1 227 9 is_stmt 0 view .LVU178
 750 023e 6369     		ldr	r3, [r4, #20]
 227:src/sys/notes.c ****                      // Les valeurs tampons sont mis dans les vrais variables
 751              		.loc 1 227 14 view .LVU179
 752 0240 43F00103 		orr	r3, r3, #1
 753 0244 6361     		str	r3, [r4, #20]
 230:src/sys/notes.c ****     color_leds(RYTHME);
 754              		.loc 1 230 5 is_stmt 1 view .LVU180
 230:src/sys/notes.c ****     color_leds(RYTHME);
 755              		.loc 1 230 9 is_stmt 0 view .LVU181
 756 0246 2368     		ldr	r3, [r4]
 231:src/sys/notes.c ****     delay_par_duree(RYTHME);
 757              		.loc 1 231 5 view .LVU182
 758 0248 2846     		mov	r0, r5
 230:src/sys/notes.c ****     color_leds(RYTHME);
 759              		.loc 1 230 14 view .LVU183
 760 024a 43F00103 		orr	r3, r3, #1
 761 024e 2360     		str	r3, [r4]
 231:src/sys/notes.c ****     delay_par_duree(RYTHME);
 762              		.loc 1 231 5 is_stmt 1 view .LVU184
 763 0250 FFF7FEFF 		bl	color_leds
 764              	.LVL81:
 232:src/sys/notes.c ****     eteindre_son();
 765              		.loc 1 232 5 view .LVU185
 766 0254 2846     		mov	r0, r5
 767 0256 FFF7FEFF 		bl	delay_par_duree
 768              	.LVL82:
 233:src/sys/notes.c ****     leds_off();
 769              		.loc 1 233 5 view .LVU186
 770 025a FFF7FEFF 		bl	eteindre_son
 771              	.LVL83:
 234:src/sys/notes.c ****     delay(10);
 772              		.loc 1 234 5 view .LVU187
 235:src/sys/notes.c **** }
 773              		.loc 1 235 5 is_stmt 0 view .LVU188
 774 025e 0A20     		movs	r0, #10
 234:src/sys/notes.c ****     delay(10);
 775              		.loc 1 234 5 view .LVU189
 776 0260 FFF7FEFF 		bl	leds_off
 777              	.LVL84:
 235:src/sys/notes.c **** }
 778              		.loc 1 235 5 is_stmt 1 view .LVU190
 236:src/sys/notes.c **** 
 779              		.loc 1 236 1 is_stmt 0 view .LVU191
 780 0264 BDE83840 		pop	{r3, r4, r5, lr}
 781              		.cfi_restore 14
 782              		.cfi_restore 5
 783              		.cfi_restore 4
 784              		.cfi_restore 3
 785              		.cfi_def_cfa_offset 0
 786              	.LVL85:
 235:src/sys/notes.c **** }
 787              		.loc 1 235 5 view .LVU192
 788 0268 FFF7FEBF 		b	delay
 789              	.LVL86:
 790              	.L80:
 791              		.align	2
 792              	.L79:
 793 026c 00000000 		.word	TIM2
 794 0270 00000000 		.word	.LANCHOR1
 795              		.cfi_endproc
 796              	.LFE405:
 797              		.size	play_note, .-play_note
 798              		.global	tempo
 799              		.section	.rodata
 800              		.align	2
 801              		.set	.LANCHOR1,. + 0
 802              		.type	notes_arr, %object
 803              		.size	notes_arr, 212
 804              	notes_arr:
 805 0000 37FF1400 		.word	1376055
 806 0004 69D11300 		.word	1298793
 807 0008 69D11300 		.word	1298793
 808 000c 5EB41200 		.word	1225822
 809 0010 07A71100 		.word	1156871
 810 0014 07A71100 		.word	1156871
 811 0018 64A81000 		.word	1091684
 812 001c D0BA0F00 		.word	1030864
 813 0020 1BD90E00 		.word	973083
 814 0024 1BD90E00 		.word	973083
 815 0028 5E030E00 		.word	918366
 816 002c 3D390D00 		.word	866621
 817 0030 3D390D00 		.word	866621
 818 0034 047C0C00 		.word	818180
 819 0038 A3C80B00 		.word	772259
 820 003c A3C80B00 		.word	772259
 821 0040 571F0B00 		.word	728919
 822 0044 797F0A00 		.word	687993
 823 0048 B5E80900 		.word	649397
 824 004c B5E80900 		.word	649397
 825 0050 585A0900 		.word	612952
 826 0054 FFD30800 		.word	578559
 827 0058 FFD30800 		.word	578559
 828 005c 11550800 		.word	546065
 829 0060 A2D10700 		.word	512418
 830 0064 8D6C0700 		.word	486541
 831 0068 8D6C0700 		.word	486541
 832 006c AE010700 		.word	459182
 833 0070 9E9C0600 		.word	433310
 834 0074 9E9C0600 		.word	433310
 835 0078 013E0600 		.word	409089
 836 007c 51E40500 		.word	386129
 837 0080 51E40500 		.word	386129
 838 0084 AC8F0500 		.word	364460
 839 0088 BC3F0500 		.word	343996
 840 008c 5BF40400 		.word	324699
 841 0090 5BF40400 		.word	324699
 842 0094 2CAD0400 		.word	306476
 843 0098 006A0400 		.word	289280
 844 009c 006A0400 		.word	289280
 845 00a0 882A0400 		.word	273032
 846 00a4 D1E80300 		.word	256209
 847 00a8 46B60300 		.word	243270
 848 00ac 46B60300 		.word	243270
 849 00b0 D7800300 		.word	229591
 850 00b4 4F4E0300 		.word	216655
 851 00b8 4F4E0300 		.word	216655
 852 00bc 011F0300 		.word	204545
 853 00c0 28F20200 		.word	193064
 854 00c4 28F20200 		.word	193064
 855 00c8 D6C70200 		.word	182230
 856 00cc DE9F0200 		.word	171998
 857 00d0 96560200 		.word	153238
 858              		.data
 859              		.align	2
 860              		.set	.LANCHOR0,. + 0
 861              		.type	tempo, %object
 862              		.size	tempo, 4
 863              	tempo:
 864 0000 3C000000 		.word	60
 865              		.text
 866              	.Letext0:
 867              		.file 2 "/opt/st/stm32cubeide_2.0.0/plugins/com.st.stm32cube.ide.mcu.externaltools.gnu-tools-for-s
 868              		.file 3 "/opt/st/stm32cubeide_2.0.0/plugins/com.st.stm32cube.ide.mcu.externaltools.gnu-tools-for-s
 869              		.file 4 "src/sys/devices.h"
 870              		.file 5 "src/sys/notes.h"
 871              		.file 6 "/opt/st/stm32cubeide_2.0.0/plugins/com.st.stm32cube.ide.mcu.externaltools.gnu-tools-for-s
 872              		.file 7 "src/sys/potentiometer.h"